
ctarget:     file format elf64-x86-64


Disassembly of section .init:

0000000000400ce8 <_init>:
  400ce8:	48 83 ec 08          	sub    $0x8,%rsp
  400cec:	48 8b 05 05 33 20 00 	mov    0x203305(%rip),%rax        # 603ff8 <__gmon_start__>
  400cf3:	48 85 c0             	test   %rax,%rax
  400cf6:	74 05                	je     400cfd <_init+0x15>
  400cf8:	e8 43 01 00 00       	callq  400e40 <__gmon_start__@plt>
  400cfd:	48 83 c4 08          	add    $0x8,%rsp
  400d01:	c3                   	retq   

Disassembly of section .plt:

0000000000400d10 <.plt>:
  400d10:	ff 35 f2 32 20 00    	pushq  0x2032f2(%rip)        # 604008 <_GLOBAL_OFFSET_TABLE_+0x8>
  400d16:	ff 25 f4 32 20 00    	jmpq   *0x2032f4(%rip)        # 604010 <_GLOBAL_OFFSET_TABLE_+0x10>
  400d1c:	0f 1f 40 00          	nopl   0x0(%rax)

0000000000400d20 <strcasecmp@plt>:
  400d20:	ff 25 f2 32 20 00    	jmpq   *0x2032f2(%rip)        # 604018 <strcasecmp@GLIBC_2.2.5>
  400d26:	68 00 00 00 00       	pushq  $0x0
  400d2b:	e9 e0 ff ff ff       	jmpq   400d10 <.plt>

0000000000400d30 <__errno_location@plt>:
  400d30:	ff 25 ea 32 20 00    	jmpq   *0x2032ea(%rip)        # 604020 <__errno_location@GLIBC_2.2.5>
  400d36:	68 01 00 00 00       	pushq  $0x1
  400d3b:	e9 d0 ff ff ff       	jmpq   400d10 <.plt>

0000000000400d40 <srandom@plt>:
  400d40:	ff 25 e2 32 20 00    	jmpq   *0x2032e2(%rip)        # 604028 <srandom@GLIBC_2.2.5>
  400d46:	68 02 00 00 00       	pushq  $0x2
  400d4b:	e9 c0 ff ff ff       	jmpq   400d10 <.plt>

0000000000400d50 <strncmp@plt>:
  400d50:	ff 25 da 32 20 00    	jmpq   *0x2032da(%rip)        # 604030 <strncmp@GLIBC_2.2.5>
  400d56:	68 03 00 00 00       	pushq  $0x3
  400d5b:	e9 b0 ff ff ff       	jmpq   400d10 <.plt>

0000000000400d60 <strcpy@plt>:
  400d60:	ff 25 d2 32 20 00    	jmpq   *0x2032d2(%rip)        # 604038 <strcpy@GLIBC_2.2.5>
  400d66:	68 04 00 00 00       	pushq  $0x4
  400d6b:	e9 a0 ff ff ff       	jmpq   400d10 <.plt>

0000000000400d70 <puts@plt>:
  400d70:	ff 25 ca 32 20 00    	jmpq   *0x2032ca(%rip)        # 604040 <puts@GLIBC_2.2.5>
  400d76:	68 05 00 00 00       	pushq  $0x5
  400d7b:	e9 90 ff ff ff       	jmpq   400d10 <.plt>

0000000000400d80 <write@plt>:
  400d80:	ff 25 c2 32 20 00    	jmpq   *0x2032c2(%rip)        # 604048 <write@GLIBC_2.2.5>
  400d86:	68 06 00 00 00       	pushq  $0x6
  400d8b:	e9 80 ff ff ff       	jmpq   400d10 <.plt>

0000000000400d90 <strlen@plt>:
  400d90:	ff 25 ba 32 20 00    	jmpq   *0x2032ba(%rip)        # 604050 <strlen@GLIBC_2.2.5>
  400d96:	68 07 00 00 00       	pushq  $0x7
  400d9b:	e9 70 ff ff ff       	jmpq   400d10 <.plt>

0000000000400da0 <mmap@plt>:
  400da0:	ff 25 b2 32 20 00    	jmpq   *0x2032b2(%rip)        # 604058 <mmap@GLIBC_2.2.5>
  400da6:	68 08 00 00 00       	pushq  $0x8
  400dab:	e9 60 ff ff ff       	jmpq   400d10 <.plt>

0000000000400db0 <printf@plt>:
  400db0:	ff 25 aa 32 20 00    	jmpq   *0x2032aa(%rip)        # 604060 <printf@GLIBC_2.2.5>
  400db6:	68 09 00 00 00       	pushq  $0x9
  400dbb:	e9 50 ff ff ff       	jmpq   400d10 <.plt>

0000000000400dc0 <memset@plt>:
  400dc0:	ff 25 a2 32 20 00    	jmpq   *0x2032a2(%rip)        # 604068 <memset@GLIBC_2.2.5>
  400dc6:	68 0a 00 00 00       	pushq  $0xa
  400dcb:	e9 40 ff ff ff       	jmpq   400d10 <.plt>

0000000000400dd0 <alarm@plt>:
  400dd0:	ff 25 9a 32 20 00    	jmpq   *0x20329a(%rip)        # 604070 <alarm@GLIBC_2.2.5>
  400dd6:	68 0b 00 00 00       	pushq  $0xb
  400ddb:	e9 30 ff ff ff       	jmpq   400d10 <.plt>

0000000000400de0 <close@plt>:
  400de0:	ff 25 92 32 20 00    	jmpq   *0x203292(%rip)        # 604078 <close@GLIBC_2.2.5>
  400de6:	68 0c 00 00 00       	pushq  $0xc
  400deb:	e9 20 ff ff ff       	jmpq   400d10 <.plt>

0000000000400df0 <read@plt>:
  400df0:	ff 25 8a 32 20 00    	jmpq   *0x20328a(%rip)        # 604080 <read@GLIBC_2.2.5>
  400df6:	68 0d 00 00 00       	pushq  $0xd
  400dfb:	e9 10 ff ff ff       	jmpq   400d10 <.plt>

0000000000400e00 <__libc_start_main@plt>:
  400e00:	ff 25 82 32 20 00    	jmpq   *0x203282(%rip)        # 604088 <__libc_start_main@GLIBC_2.2.5>
  400e06:	68 0e 00 00 00       	pushq  $0xe
  400e0b:	e9 00 ff ff ff       	jmpq   400d10 <.plt>

0000000000400e10 <signal@plt>:
  400e10:	ff 25 7a 32 20 00    	jmpq   *0x20327a(%rip)        # 604090 <signal@GLIBC_2.2.5>
  400e16:	68 0f 00 00 00       	pushq  $0xf
  400e1b:	e9 f0 fe ff ff       	jmpq   400d10 <.plt>

0000000000400e20 <gethostbyname@plt>:
  400e20:	ff 25 72 32 20 00    	jmpq   *0x203272(%rip)        # 604098 <gethostbyname@GLIBC_2.2.5>
  400e26:	68 10 00 00 00       	pushq  $0x10
  400e2b:	e9 e0 fe ff ff       	jmpq   400d10 <.plt>

0000000000400e30 <fprintf@plt>:
  400e30:	ff 25 6a 32 20 00    	jmpq   *0x20326a(%rip)        # 6040a0 <fprintf@GLIBC_2.2.5>
  400e36:	68 11 00 00 00       	pushq  $0x11
  400e3b:	e9 d0 fe ff ff       	jmpq   400d10 <.plt>

0000000000400e40 <__gmon_start__@plt>:
  400e40:	ff 25 62 32 20 00    	jmpq   *0x203262(%rip)        # 6040a8 <__gmon_start__>
  400e46:	68 12 00 00 00       	pushq  $0x12
  400e4b:	e9 c0 fe ff ff       	jmpq   400d10 <.plt>

0000000000400e50 <strtol@plt>:
  400e50:	ff 25 5a 32 20 00    	jmpq   *0x20325a(%rip)        # 6040b0 <strtol@GLIBC_2.2.5>
  400e56:	68 13 00 00 00       	pushq  $0x13
  400e5b:	e9 b0 fe ff ff       	jmpq   400d10 <.plt>

0000000000400e60 <memcpy@plt>:
  400e60:	ff 25 52 32 20 00    	jmpq   *0x203252(%rip)        # 6040b8 <memcpy@GLIBC_2.14>
  400e66:	68 14 00 00 00       	pushq  $0x14
  400e6b:	e9 a0 fe ff ff       	jmpq   400d10 <.plt>

0000000000400e70 <time@plt>:
  400e70:	ff 25 4a 32 20 00    	jmpq   *0x20324a(%rip)        # 6040c0 <time@GLIBC_2.2.5>
  400e76:	68 15 00 00 00       	pushq  $0x15
  400e7b:	e9 90 fe ff ff       	jmpq   400d10 <.plt>

0000000000400e80 <random@plt>:
  400e80:	ff 25 42 32 20 00    	jmpq   *0x203242(%rip)        # 6040c8 <random@GLIBC_2.2.5>
  400e86:	68 16 00 00 00       	pushq  $0x16
  400e8b:	e9 80 fe ff ff       	jmpq   400d10 <.plt>

0000000000400e90 <_IO_getc@plt>:
  400e90:	ff 25 3a 32 20 00    	jmpq   *0x20323a(%rip)        # 6040d0 <_IO_getc@GLIBC_2.2.5>
  400e96:	68 17 00 00 00       	pushq  $0x17
  400e9b:	e9 70 fe ff ff       	jmpq   400d10 <.plt>

0000000000400ea0 <__isoc99_sscanf@plt>:
  400ea0:	ff 25 32 32 20 00    	jmpq   *0x203232(%rip)        # 6040d8 <__isoc99_sscanf@GLIBC_2.7>
  400ea6:	68 18 00 00 00       	pushq  $0x18
  400eab:	e9 60 fe ff ff       	jmpq   400d10 <.plt>

0000000000400eb0 <munmap@plt>:
  400eb0:	ff 25 2a 32 20 00    	jmpq   *0x20322a(%rip)        # 6040e0 <munmap@GLIBC_2.2.5>
  400eb6:	68 19 00 00 00       	pushq  $0x19
  400ebb:	e9 50 fe ff ff       	jmpq   400d10 <.plt>

0000000000400ec0 <memmove@plt>:
  400ec0:	ff 25 22 32 20 00    	jmpq   *0x203222(%rip)        # 6040e8 <memmove@GLIBC_2.2.5>
  400ec6:	68 1a 00 00 00       	pushq  $0x1a
  400ecb:	e9 40 fe ff ff       	jmpq   400d10 <.plt>

0000000000400ed0 <fopen@plt>:
  400ed0:	ff 25 1a 32 20 00    	jmpq   *0x20321a(%rip)        # 6040f0 <fopen@GLIBC_2.2.5>
  400ed6:	68 1b 00 00 00       	pushq  $0x1b
  400edb:	e9 30 fe ff ff       	jmpq   400d10 <.plt>

0000000000400ee0 <getopt@plt>:
  400ee0:	ff 25 12 32 20 00    	jmpq   *0x203212(%rip)        # 6040f8 <getopt@GLIBC_2.2.5>
  400ee6:	68 1c 00 00 00       	pushq  $0x1c
  400eeb:	e9 20 fe ff ff       	jmpq   400d10 <.plt>

0000000000400ef0 <strtoul@plt>:
  400ef0:	ff 25 0a 32 20 00    	jmpq   *0x20320a(%rip)        # 604100 <strtoul@GLIBC_2.2.5>
  400ef6:	68 1d 00 00 00       	pushq  $0x1d
  400efb:	e9 10 fe ff ff       	jmpq   400d10 <.plt>

0000000000400f00 <gethostname@plt>:
  400f00:	ff 25 02 32 20 00    	jmpq   *0x203202(%rip)        # 604108 <gethostname@GLIBC_2.2.5>
  400f06:	68 1e 00 00 00       	pushq  $0x1e
  400f0b:	e9 00 fe ff ff       	jmpq   400d10 <.plt>

0000000000400f10 <sprintf@plt>:
  400f10:	ff 25 fa 31 20 00    	jmpq   *0x2031fa(%rip)        # 604110 <sprintf@GLIBC_2.2.5>
  400f16:	68 1f 00 00 00       	pushq  $0x1f
  400f1b:	e9 f0 fd ff ff       	jmpq   400d10 <.plt>

0000000000400f20 <exit@plt>:
  400f20:	ff 25 f2 31 20 00    	jmpq   *0x2031f2(%rip)        # 604118 <exit@GLIBC_2.2.5>
  400f26:	68 20 00 00 00       	pushq  $0x20
  400f2b:	e9 e0 fd ff ff       	jmpq   400d10 <.plt>

0000000000400f30 <connect@plt>:
  400f30:	ff 25 ea 31 20 00    	jmpq   *0x2031ea(%rip)        # 604120 <connect@GLIBC_2.2.5>
  400f36:	68 21 00 00 00       	pushq  $0x21
  400f3b:	e9 d0 fd ff ff       	jmpq   400d10 <.plt>

0000000000400f40 <socket@plt>:
  400f40:	ff 25 e2 31 20 00    	jmpq   *0x2031e2(%rip)        # 604128 <socket@GLIBC_2.2.5>
  400f46:	68 22 00 00 00       	pushq  $0x22
  400f4b:	e9 c0 fd ff ff       	jmpq   400d10 <.plt>

Disassembly of section .text:

0000000000400f50 <_start>:
  400f50:	31 ed                	xor    %ebp,%ebp
  400f52:	49 89 d1             	mov    %rdx,%r9
  400f55:	5e                   	pop    %rsi
  400f56:	48 89 e2             	mov    %rsp,%rdx
  400f59:	48 83 e4 f0          	and    $0xfffffffffffffff0,%rsp
  400f5d:	50                   	push   %rax
  400f5e:	54                   	push   %rsp
  400f5f:	49 c7 c0 c0 2c 40 00 	mov    $0x402cc0,%r8
  400f66:	48 c7 c1 50 2c 40 00 	mov    $0x402c50,%rcx
  400f6d:	48 c7 c7 ed 11 40 00 	mov    $0x4011ed,%rdi
  400f74:	e8 87 fe ff ff       	callq  400e00 <__libc_start_main@plt>
  400f79:	f4                   	hlt    
  400f7a:	66 0f 1f 44 00 00    	nopw   0x0(%rax,%rax,1)

0000000000400f80 <deregister_tm_clones>:
  400f80:	b8 b8 44 60 00       	mov    $0x6044b8,%eax
  400f85:	48 3d b8 44 60 00    	cmp    $0x6044b8,%rax
  400f8b:	74 13                	je     400fa0 <deregister_tm_clones+0x20>
  400f8d:	b8 00 00 00 00       	mov    $0x0,%eax
  400f92:	48 85 c0             	test   %rax,%rax
  400f95:	74 09                	je     400fa0 <deregister_tm_clones+0x20>
  400f97:	bf b8 44 60 00       	mov    $0x6044b8,%edi
  400f9c:	ff e0                	jmpq   *%rax
  400f9e:	66 90                	xchg   %ax,%ax
  400fa0:	c3                   	retq   
  400fa1:	0f 1f 44 00 00       	nopl   0x0(%rax,%rax,1)
  400fa6:	66 2e 0f 1f 84 00 00 	nopw   %cs:0x0(%rax,%rax,1)
  400fad:	00 00 00 

0000000000400fb0 <register_tm_clones>:
  400fb0:	be b8 44 60 00       	mov    $0x6044b8,%esi
  400fb5:	48 81 ee b8 44 60 00 	sub    $0x6044b8,%rsi
  400fbc:	48 89 f0             	mov    %rsi,%rax
  400fbf:	48 c1 ee 3f          	shr    $0x3f,%rsi
  400fc3:	48 c1 f8 03          	sar    $0x3,%rax
  400fc7:	48 01 c6             	add    %rax,%rsi
  400fca:	48 d1 fe             	sar    %rsi
  400fcd:	74 11                	je     400fe0 <register_tm_clones+0x30>
  400fcf:	b8 00 00 00 00       	mov    $0x0,%eax
  400fd4:	48 85 c0             	test   %rax,%rax
  400fd7:	74 07                	je     400fe0 <register_tm_clones+0x30>
  400fd9:	bf b8 44 60 00       	mov    $0x6044b8,%edi
  400fde:	ff e0                	jmpq   *%rax
  400fe0:	c3                   	retq   
  400fe1:	0f 1f 44 00 00       	nopl   0x0(%rax,%rax,1)
  400fe6:	66 2e 0f 1f 84 00 00 	nopw   %cs:0x0(%rax,%rax,1)
  400fed:	00 00 00 

0000000000400ff0 <__do_global_dtors_aux>:
  400ff0:	80 3d e1 34 20 00 00 	cmpb   $0x0,0x2034e1(%rip)        # 6044d8 <completed.0>
  400ff7:	75 17                	jne    401010 <__do_global_dtors_aux+0x20>
  400ff9:	55                   	push   %rbp
  400ffa:	48 89 e5             	mov    %rsp,%rbp
  400ffd:	e8 7e ff ff ff       	callq  400f80 <deregister_tm_clones>
  401002:	c6 05 cf 34 20 00 01 	movb   $0x1,0x2034cf(%rip)        # 6044d8 <completed.0>
  401009:	5d                   	pop    %rbp
  40100a:	c3                   	retq   
  40100b:	0f 1f 44 00 00       	nopl   0x0(%rax,%rax,1)
  401010:	c3                   	retq   
  401011:	0f 1f 44 00 00       	nopl   0x0(%rax,%rax,1)
  401016:	66 2e 0f 1f 84 00 00 	nopw   %cs:0x0(%rax,%rax,1)
  40101d:	00 00 00 

0000000000401020 <frame_dummy>:
  401020:	eb 8e                	jmp    400fb0 <register_tm_clones>

0000000000401022 <usage>:
  401022:	48 83 ec 08          	sub    $0x8,%rsp
  401026:	48 89 fe             	mov    %rdi,%rsi
  401029:	83 3d e0 34 20 00 00 	cmpl   $0x0,0x2034e0(%rip)        # 604510 <is_checker>
  401030:	74 41                	je     401073 <usage+0x51>
  401032:	bf d8 2c 40 00       	mov    $0x402cd8,%edi
  401037:	b8 00 00 00 00       	mov    $0x0,%eax
  40103c:	e8 6f fd ff ff       	callq  400db0 <printf@plt>
  401041:	bf 10 2d 40 00       	mov    $0x402d10,%edi
  401046:	e8 25 fd ff ff       	callq  400d70 <puts@plt>
  40104b:	bf 88 2e 40 00       	mov    $0x402e88,%edi
  401050:	e8 1b fd ff ff       	callq  400d70 <puts@plt>
  401055:	bf 38 2d 40 00       	mov    $0x402d38,%edi
  40105a:	e8 11 fd ff ff       	callq  400d70 <puts@plt>
  40105f:	bf a2 2e 40 00       	mov    $0x402ea2,%edi
  401064:	e8 07 fd ff ff       	callq  400d70 <puts@plt>
  401069:	bf 00 00 00 00       	mov    $0x0,%edi
  40106e:	e8 ad fe ff ff       	callq  400f20 <exit@plt>
  401073:	bf be 2e 40 00       	mov    $0x402ebe,%edi
  401078:	b8 00 00 00 00       	mov    $0x0,%eax
  40107d:	e8 2e fd ff ff       	callq  400db0 <printf@plt>
  401082:	bf 60 2d 40 00       	mov    $0x402d60,%edi
  401087:	e8 e4 fc ff ff       	callq  400d70 <puts@plt>
  40108c:	bf 88 2d 40 00       	mov    $0x402d88,%edi
  401091:	e8 da fc ff ff       	callq  400d70 <puts@plt>
  401096:	bf dc 2e 40 00       	mov    $0x402edc,%edi
  40109b:	e8 d0 fc ff ff       	callq  400d70 <puts@plt>
  4010a0:	eb c7                	jmp    401069 <usage+0x47>

00000000004010a2 <initialize_target>:
  4010a2:	55                   	push   %rbp
  4010a3:	53                   	push   %rbx
  4010a4:	48 81 ec 08 21 00 00 	sub    $0x2108,%rsp
  4010ab:	89 f5                	mov    %esi,%ebp
  4010ad:	89 3d 4d 34 20 00    	mov    %edi,0x20344d(%rip)        # 604500 <check_level>
  4010b3:	8b 3d af 30 20 00    	mov    0x2030af(%rip),%edi        # 604168 <target_id>
  4010b9:	e8 6e 1b 00 00       	callq  402c2c <gencookie>
  4010be:	89 c7                	mov    %eax,%edi
  4010c0:	89 05 46 34 20 00    	mov    %eax,0x203446(%rip)        # 60450c <cookie>
  4010c6:	e8 61 1b 00 00       	callq  402c2c <gencookie>
  4010cb:	89 05 37 34 20 00    	mov    %eax,0x203437(%rip)        # 604508 <authkey>
  4010d1:	8b 05 91 30 20 00    	mov    0x203091(%rip),%eax        # 604168 <target_id>
  4010d7:	8d 78 01             	lea    0x1(%rax),%edi
  4010da:	e8 61 fc ff ff       	callq  400d40 <srandom@plt>
  4010df:	e8 9c fd ff ff       	callq  400e80 <random@plt>
  4010e4:	48 89 c7             	mov    %rax,%rdi
  4010e7:	e8 b9 02 00 00       	callq  4013a5 <scramble>
  4010ec:	89 c3                	mov    %eax,%ebx
  4010ee:	85 ed                	test   %ebp,%ebp
  4010f0:	75 3d                	jne    40112f <initialize_target+0x8d>
  4010f2:	b8 00 00 00 00       	mov    $0x0,%eax
  4010f7:	01 d8                	add    %ebx,%eax
  4010f9:	0f b7 c0             	movzwl %ax,%eax
  4010fc:	8d 04 c5 00 01 00 00 	lea    0x100(,%rax,8),%eax
  401103:	89 c0                	mov    %eax,%eax
  401105:	48 89 05 a4 33 20 00 	mov    %rax,0x2033a4(%rip)        # 6044b0 <buf_offset>
  40110c:	c6 05 3d 30 20 00 63 	movb   $0x63,0x20303d(%rip)        # 604150 <target_prefix>
  401113:	83 3d 8e 33 20 00 00 	cmpl   $0x0,0x20338e(%rip)        # 6044a8 <notify>
  40111a:	74 09                	je     401125 <initialize_target+0x83>
  40111c:	83 3d ed 33 20 00 00 	cmpl   $0x0,0x2033ed(%rip)        # 604510 <is_checker>
  401123:	74 23                	je     401148 <initialize_target+0xa6>
  401125:	48 81 c4 08 21 00 00 	add    $0x2108,%rsp
  40112c:	5b                   	pop    %rbx
  40112d:	5d                   	pop    %rbp
  40112e:	c3                   	retq   
  40112f:	bf 00 00 00 00       	mov    $0x0,%edi
  401134:	e8 37 fd ff ff       	callq  400e70 <time@plt>
  401139:	48 89 c7             	mov    %rax,%rdi
  40113c:	e8 ff fb ff ff       	callq  400d40 <srandom@plt>
  401141:	e8 3a fd ff ff       	callq  400e80 <random@plt>
  401146:	eb af                	jmp    4010f7 <initialize_target+0x55>
  401148:	be 00 01 00 00       	mov    $0x100,%esi
  40114d:	48 89 e7             	mov    %rsp,%rdi
  401150:	e8 ab fd ff ff       	callq  400f00 <gethostname@plt>
  401155:	89 c5                	mov    %eax,%ebp
  401157:	85 c0                	test   %eax,%eax
  401159:	75 23                	jne    40117e <initialize_target+0xdc>
  40115b:	89 c3                	mov    %eax,%ebx
  40115d:	48 63 c3             	movslq %ebx,%rax
  401160:	48 8b 3c c5 80 41 60 	mov    0x604180(,%rax,8),%rdi
  401167:	00 
  401168:	48 85 ff             	test   %rdi,%rdi
  40116b:	74 2a                	je     401197 <initialize_target+0xf5>
  40116d:	48 89 e6             	mov    %rsp,%rsi
  401170:	e8 ab fb ff ff       	callq  400d20 <strcasecmp@plt>
  401175:	85 c0                	test   %eax,%eax
  401177:	74 19                	je     401192 <initialize_target+0xf0>
  401179:	83 c3 01             	add    $0x1,%ebx
  40117c:	eb df                	jmp    40115d <initialize_target+0xbb>
  40117e:	bf b8 2d 40 00       	mov    $0x402db8,%edi
  401183:	e8 e8 fb ff ff       	callq  400d70 <puts@plt>
  401188:	bf 08 00 00 00       	mov    $0x8,%edi
  40118d:	e8 8e fd ff ff       	callq  400f20 <exit@plt>
  401192:	bd 01 00 00 00       	mov    $0x1,%ebp
  401197:	85 ed                	test   %ebp,%ebp
  401199:	74 36                	je     4011d1 <initialize_target+0x12f>
  40119b:	48 8d bc 24 00 01 00 	lea    0x100(%rsp),%rdi
  4011a2:	00 
  4011a3:	e8 ec 17 00 00       	callq  402994 <init_driver>
  4011a8:	85 c0                	test   %eax,%eax
  4011aa:	0f 89 75 ff ff ff    	jns    401125 <initialize_target+0x83>
  4011b0:	48 8d b4 24 00 01 00 	lea    0x100(%rsp),%rsi
  4011b7:	00 
  4011b8:	bf 30 2e 40 00       	mov    $0x402e30,%edi
  4011bd:	b8 00 00 00 00       	mov    $0x0,%eax
  4011c2:	e8 e9 fb ff ff       	callq  400db0 <printf@plt>
  4011c7:	bf 08 00 00 00       	mov    $0x8,%edi
  4011cc:	e8 4f fd ff ff       	callq  400f20 <exit@plt>
  4011d1:	48 89 e6             	mov    %rsp,%rsi
  4011d4:	bf f0 2d 40 00       	mov    $0x402df0,%edi
  4011d9:	b8 00 00 00 00       	mov    $0x0,%eax
  4011de:	e8 cd fb ff ff       	callq  400db0 <printf@plt>
  4011e3:	bf 08 00 00 00       	mov    $0x8,%edi
  4011e8:	e8 33 fd ff ff       	callq  400f20 <exit@plt>

00000000004011ed <main>:
  4011ed:	41 56                	push   %r14
  4011ef:	41 55                	push   %r13
  4011f1:	41 54                	push   %r12
  4011f3:	55                   	push   %rbp
  4011f4:	53                   	push   %rbx
  4011f5:	89 fd                	mov    %edi,%ebp
  4011f7:	48 89 f3             	mov    %rsi,%rbx
  4011fa:	be ac 1d 40 00       	mov    $0x401dac,%esi
  4011ff:	bf 0b 00 00 00       	mov    $0xb,%edi
  401204:	e8 07 fc ff ff       	callq  400e10 <signal@plt>
  401209:	be 5e 1d 40 00       	mov    $0x401d5e,%esi
  40120e:	bf 07 00 00 00       	mov    $0x7,%edi
  401213:	e8 f8 fb ff ff       	callq  400e10 <signal@plt>
  401218:	be fa 1d 40 00       	mov    $0x401dfa,%esi
  40121d:	bf 04 00 00 00       	mov    $0x4,%edi
  401222:	e8 e9 fb ff ff       	callq  400e10 <signal@plt>
  401227:	83 3d e2 32 20 00 00 	cmpl   $0x0,0x2032e2(%rip)        # 604510 <is_checker>
  40122e:	75 25                	jne    401255 <main+0x68>
  401230:	41 bc fd 2e 40 00    	mov    $0x402efd,%r12d
  401236:	48 8b 05 83 32 20 00 	mov    0x203283(%rip),%rax        # 6044c0 <stdin@@GLIBC_2.2.5>
  40123d:	48 89 05 b4 32 20 00 	mov    %rax,0x2032b4(%rip)        # 6044f8 <infile>
  401244:	41 bd 00 00 00 00    	mov    $0x0,%r13d
  40124a:	41 be 00 00 00 00    	mov    $0x0,%r14d
  401250:	e9 81 00 00 00       	jmpq   4012d6 <main+0xe9>
  401255:	be 48 1e 40 00       	mov    $0x401e48,%esi
  40125a:	bf 0e 00 00 00       	mov    $0xe,%edi
  40125f:	e8 ac fb ff ff       	callq  400e10 <signal@plt>
  401264:	bf 05 00 00 00       	mov    $0x5,%edi
  401269:	e8 62 fb ff ff       	callq  400dd0 <alarm@plt>
  40126e:	41 bc f5 2e 40 00    	mov    $0x402ef5,%r12d
  401274:	eb c0                	jmp    401236 <main+0x49>
  401276:	48 8b 3b             	mov    (%rbx),%rdi
  401279:	e8 a4 fd ff ff       	callq  401022 <usage>
  40127e:	be 95 32 40 00       	mov    $0x403295,%esi
  401283:	48 8b 3d 3e 32 20 00 	mov    0x20323e(%rip),%rdi        # 6044c8 <optarg@@GLIBC_2.2.5>
  40128a:	e8 41 fc ff ff       	callq  400ed0 <fopen@plt>
  40128f:	48 89 05 62 32 20 00 	mov    %rax,0x203262(%rip)        # 6044f8 <infile>
  401296:	48 85 c0             	test   %rax,%rax
  401299:	75 3b                	jne    4012d6 <main+0xe9>
  40129b:	48 8b 15 26 32 20 00 	mov    0x203226(%rip),%rdx        # 6044c8 <optarg@@GLIBC_2.2.5>
  4012a2:	be 02 2f 40 00       	mov    $0x402f02,%esi
  4012a7:	48 8b 3d 22 32 20 00 	mov    0x203222(%rip),%rdi        # 6044d0 <stderr@@GLIBC_2.2.5>
  4012ae:	e8 7d fb ff ff       	callq  400e30 <fprintf@plt>
  4012b3:	b8 01 00 00 00       	mov    $0x1,%eax
  4012b8:	e9 c1 00 00 00       	jmpq   40137e <main+0x191>
  4012bd:	ba 10 00 00 00       	mov    $0x10,%edx
  4012c2:	be 00 00 00 00       	mov    $0x0,%esi
  4012c7:	48 8b 3d fa 31 20 00 	mov    0x2031fa(%rip),%rdi        # 6044c8 <optarg@@GLIBC_2.2.5>
  4012ce:	e8 1d fc ff ff       	callq  400ef0 <strtoul@plt>
  4012d3:	41 89 c6             	mov    %eax,%r14d
  4012d6:	4c 89 e2             	mov    %r12,%rdx
  4012d9:	48 89 de             	mov    %rbx,%rsi
  4012dc:	89 ef                	mov    %ebp,%edi
  4012de:	e8 fd fb ff ff       	callq  400ee0 <getopt@plt>
  4012e3:	3c ff                	cmp    $0xff,%al
  4012e5:	74 52                	je     401339 <main+0x14c>
  4012e7:	0f be f0             	movsbl %al,%esi
  4012ea:	83 e8 61             	sub    $0x61,%eax
  4012ed:	3c 10                	cmp    $0x10,%al
  4012ef:	77 31                	ja     401322 <main+0x135>
  4012f1:	0f b6 c0             	movzbl %al,%eax
  4012f4:	ff 24 c5 40 2f 40 00 	jmpq   *0x402f40(,%rax,8)
  4012fb:	ba 0a 00 00 00       	mov    $0xa,%edx
  401300:	be 00 00 00 00       	mov    $0x0,%esi
  401305:	48 8b 3d bc 31 20 00 	mov    0x2031bc(%rip),%rdi        # 6044c8 <optarg@@GLIBC_2.2.5>
  40130c:	e8 3f fb ff ff       	callq  400e50 <strtol@plt>
  401311:	41 89 c5             	mov    %eax,%r13d
  401314:	eb c0                	jmp    4012d6 <main+0xe9>
  401316:	c7 05 88 31 20 00 00 	movl   $0x0,0x203188(%rip)        # 6044a8 <notify>
  40131d:	00 00 00 
  401320:	eb b4                	jmp    4012d6 <main+0xe9>
  401322:	bf 1f 2f 40 00       	mov    $0x402f1f,%edi
  401327:	b8 00 00 00 00       	mov    $0x0,%eax
  40132c:	e8 7f fa ff ff       	callq  400db0 <printf@plt>
  401331:	48 8b 3b             	mov    (%rbx),%rdi
  401334:	e8 e9 fc ff ff       	callq  401022 <usage>
  401339:	be 00 00 00 00       	mov    $0x0,%esi
  40133e:	44 89 ef             	mov    %r13d,%edi
  401341:	e8 5c fd ff ff       	callq  4010a2 <initialize_target>
  401346:	83 3d c3 31 20 00 00 	cmpl   $0x0,0x2031c3(%rip)        # 604510 <is_checker>
  40134d:	74 09                	je     401358 <main+0x16b>
  40134f:	44 39 35 b2 31 20 00 	cmp    %r14d,0x2031b2(%rip)        # 604508 <authkey>
  401356:	75 2f                	jne    401387 <main+0x19a>
  401358:	8b 35 ae 31 20 00    	mov    0x2031ae(%rip),%esi        # 60450c <cookie>
  40135e:	bf 32 2f 40 00       	mov    $0x402f32,%edi
  401363:	b8 00 00 00 00       	mov    $0x0,%eax
  401368:	e8 43 fa ff ff       	callq  400db0 <printf@plt>
  40136d:	48 8b 3d 3c 31 20 00 	mov    0x20313c(%rip),%rdi        # 6044b0 <buf_offset>
  401374:	e8 a0 0b 00 00       	callq  401f19 <stable_launch>
  401379:	b8 00 00 00 00       	mov    $0x0,%eax
  40137e:	5b                   	pop    %rbx
  40137f:	5d                   	pop    %rbp
  401380:	41 5c                	pop    %r12
  401382:	41 5d                	pop    %r13
  401384:	41 5e                	pop    %r14
  401386:	c3                   	retq   
  401387:	44 89 f6             	mov    %r14d,%esi
  40138a:	bf 58 2e 40 00       	mov    $0x402e58,%edi
  40138f:	b8 00 00 00 00       	mov    $0x0,%eax
  401394:	e8 17 fa ff ff       	callq  400db0 <printf@plt>
  401399:	b8 00 00 00 00       	mov    $0x0,%eax
  40139e:	e8 bf 06 00 00       	callq  401a62 <check_fail>
  4013a3:	eb b3                	jmp    401358 <main+0x16b>

00000000004013a5 <scramble>:
  4013a5:	b8 00 00 00 00       	mov    $0x0,%eax
  4013aa:	eb 11                	jmp    4013bd <scramble+0x18>
  4013ac:	69 d0 14 13 00 00    	imul   $0x1314,%eax,%edx
  4013b2:	01 fa                	add    %edi,%edx
  4013b4:	89 c1                	mov    %eax,%ecx
  4013b6:	89 54 8c d0          	mov    %edx,-0x30(%rsp,%rcx,4)
  4013ba:	83 c0 01             	add    $0x1,%eax
  4013bd:	83 f8 09             	cmp    $0x9,%eax
  4013c0:	76 ea                	jbe    4013ac <scramble+0x7>
  4013c2:	8b 44 24 f0          	mov    -0x10(%rsp),%eax
  4013c6:	69 c0 9a e5 00 00    	imul   $0xe59a,%eax,%eax
  4013cc:	89 44 24 f0          	mov    %eax,-0x10(%rsp)
  4013d0:	8b 44 24 e4          	mov    -0x1c(%rsp),%eax
  4013d4:	69 c0 5c 93 00 00    	imul   $0x935c,%eax,%eax
  4013da:	89 44 24 e4          	mov    %eax,-0x1c(%rsp)
  4013de:	8b 44 24 f0          	mov    -0x10(%rsp),%eax
  4013e2:	69 c0 a0 b8 00 00    	imul   $0xb8a0,%eax,%eax
  4013e8:	89 44 24 f0          	mov    %eax,-0x10(%rsp)
  4013ec:	8b 44 24 d8          	mov    -0x28(%rsp),%eax
  4013f0:	69 c0 71 e6 00 00    	imul   $0xe671,%eax,%eax
  4013f6:	89 44 24 d8          	mov    %eax,-0x28(%rsp)
  4013fa:	8b 44 24 e8          	mov    -0x18(%rsp),%eax
  4013fe:	69 c0 42 4a 00 00    	imul   $0x4a42,%eax,%eax
  401404:	89 44 24 e8          	mov    %eax,-0x18(%rsp)
  401408:	8b 44 24 f4          	mov    -0xc(%rsp),%eax
  40140c:	69 c0 5b ae 00 00    	imul   $0xae5b,%eax,%eax
  401412:	89 44 24 f4          	mov    %eax,-0xc(%rsp)
  401416:	8b 44 24 dc          	mov    -0x24(%rsp),%eax
  40141a:	69 c0 1d 7c 00 00    	imul   $0x7c1d,%eax,%eax
  401420:	89 44 24 dc          	mov    %eax,-0x24(%rsp)
  401424:	8b 44 24 e0          	mov    -0x20(%rsp),%eax
  401428:	69 c0 50 2e 00 00    	imul   $0x2e50,%eax,%eax
  40142e:	89 44 24 e0          	mov    %eax,-0x20(%rsp)
  401432:	8b 44 24 f4          	mov    -0xc(%rsp),%eax
  401436:	69 c0 32 28 00 00    	imul   $0x2832,%eax,%eax
  40143c:	89 44 24 f4          	mov    %eax,-0xc(%rsp)
  401440:	8b 44 24 f4          	mov    -0xc(%rsp),%eax
  401444:	69 c0 fc 0b 00 00    	imul   $0xbfc,%eax,%eax
  40144a:	89 44 24 f4          	mov    %eax,-0xc(%rsp)
  40144e:	8b 44 24 f0          	mov    -0x10(%rsp),%eax
  401452:	69 c0 cb 1d 00 00    	imul   $0x1dcb,%eax,%eax
  401458:	89 44 24 f0          	mov    %eax,-0x10(%rsp)
  40145c:	8b 44 24 ec          	mov    -0x14(%rsp),%eax
  401460:	69 c0 8d 71 00 00    	imul   $0x718d,%eax,%eax
  401466:	89 44 24 ec          	mov    %eax,-0x14(%rsp)
  40146a:	8b 44 24 f4          	mov    -0xc(%rsp),%eax
  40146e:	69 c0 eb b0 00 00    	imul   $0xb0eb,%eax,%eax
  401474:	89 44 24 f4          	mov    %eax,-0xc(%rsp)
  401478:	8b 44 24 ec          	mov    -0x14(%rsp),%eax
  40147c:	69 c0 1f 5f 00 00    	imul   $0x5f1f,%eax,%eax
  401482:	89 44 24 ec          	mov    %eax,-0x14(%rsp)
  401486:	8b 44 24 e0          	mov    -0x20(%rsp),%eax
  40148a:	69 c0 08 e1 00 00    	imul   $0xe108,%eax,%eax
  401490:	89 44 24 e0          	mov    %eax,-0x20(%rsp)
  401494:	8b 44 24 f0          	mov    -0x10(%rsp),%eax
  401498:	69 c0 e0 df 00 00    	imul   $0xdfe0,%eax,%eax
  40149e:	89 44 24 f0          	mov    %eax,-0x10(%rsp)
  4014a2:	8b 44 24 d0          	mov    -0x30(%rsp),%eax
  4014a6:	69 c0 73 eb 00 00    	imul   $0xeb73,%eax,%eax
  4014ac:	89 44 24 d0          	mov    %eax,-0x30(%rsp)
  4014b0:	8b 44 24 ec          	mov    -0x14(%rsp),%eax
  4014b4:	69 c0 50 25 00 00    	imul   $0x2550,%eax,%eax
  4014ba:	89 44 24 ec          	mov    %eax,-0x14(%rsp)
  4014be:	8b 44 24 d4          	mov    -0x2c(%rsp),%eax
  4014c2:	69 c0 46 01 00 00    	imul   $0x146,%eax,%eax
  4014c8:	89 44 24 d4          	mov    %eax,-0x2c(%rsp)
  4014cc:	8b 44 24 d4          	mov    -0x2c(%rsp),%eax
  4014d0:	69 c0 1d 08 00 00    	imul   $0x81d,%eax,%eax
  4014d6:	89 44 24 d4          	mov    %eax,-0x2c(%rsp)
  4014da:	8b 44 24 d0          	mov    -0x30(%rsp),%eax
  4014de:	69 c0 15 58 00 00    	imul   $0x5815,%eax,%eax
  4014e4:	89 44 24 d0          	mov    %eax,-0x30(%rsp)
  4014e8:	8b 44 24 e4          	mov    -0x1c(%rsp),%eax
  4014ec:	69 c0 50 44 00 00    	imul   $0x4450,%eax,%eax
  4014f2:	89 44 24 e4          	mov    %eax,-0x1c(%rsp)
  4014f6:	8b 44 24 d4          	mov    -0x2c(%rsp),%eax
  4014fa:	69 c0 25 31 00 00    	imul   $0x3125,%eax,%eax
  401500:	89 44 24 d4          	mov    %eax,-0x2c(%rsp)
  401504:	8b 44 24 f0          	mov    -0x10(%rsp),%eax
  401508:	69 c0 b5 d3 00 00    	imul   $0xd3b5,%eax,%eax
  40150e:	89 44 24 f0          	mov    %eax,-0x10(%rsp)
  401512:	8b 44 24 f4          	mov    -0xc(%rsp),%eax
  401516:	69 c0 84 3a 00 00    	imul   $0x3a84,%eax,%eax
  40151c:	89 44 24 f4          	mov    %eax,-0xc(%rsp)
  401520:	8b 44 24 d8          	mov    -0x28(%rsp),%eax
  401524:	69 c0 83 8c 00 00    	imul   $0x8c83,%eax,%eax
  40152a:	89 44 24 d8          	mov    %eax,-0x28(%rsp)
  40152e:	8b 44 24 d8          	mov    -0x28(%rsp),%eax
  401532:	69 c0 13 65 00 00    	imul   $0x6513,%eax,%eax
  401538:	89 44 24 d8          	mov    %eax,-0x28(%rsp)
  40153c:	8b 44 24 e0          	mov    -0x20(%rsp),%eax
  401540:	69 c0 85 4c 00 00    	imul   $0x4c85,%eax,%eax
  401546:	89 44 24 e0          	mov    %eax,-0x20(%rsp)
  40154a:	8b 44 24 e0          	mov    -0x20(%rsp),%eax
  40154e:	69 c0 03 0f 00 00    	imul   $0xf03,%eax,%eax
  401554:	89 44 24 e0          	mov    %eax,-0x20(%rsp)
  401558:	8b 44 24 d8          	mov    -0x28(%rsp),%eax
  40155c:	69 c0 c9 e2 00 00    	imul   $0xe2c9,%eax,%eax
  401562:	89 44 24 d8          	mov    %eax,-0x28(%rsp)
  401566:	8b 44 24 e4          	mov    -0x1c(%rsp),%eax
  40156a:	69 c0 d6 d6 00 00    	imul   $0xd6d6,%eax,%eax
  401570:	89 44 24 e4          	mov    %eax,-0x1c(%rsp)
  401574:	8b 44 24 ec          	mov    -0x14(%rsp),%eax
  401578:	69 c0 ae b6 00 00    	imul   $0xb6ae,%eax,%eax
  40157e:	89 44 24 ec          	mov    %eax,-0x14(%rsp)
  401582:	8b 44 24 e0          	mov    -0x20(%rsp),%eax
  401586:	69 c0 e6 35 00 00    	imul   $0x35e6,%eax,%eax
  40158c:	89 44 24 e0          	mov    %eax,-0x20(%rsp)
  401590:	8b 44 24 f0          	mov    -0x10(%rsp),%eax
  401594:	69 c0 5c 66 00 00    	imul   $0x665c,%eax,%eax
  40159a:	89 44 24 f0          	mov    %eax,-0x10(%rsp)
  40159e:	8b 44 24 e8          	mov    -0x18(%rsp),%eax
  4015a2:	69 c0 bf e7 00 00    	imul   $0xe7bf,%eax,%eax
  4015a8:	89 44 24 e8          	mov    %eax,-0x18(%rsp)
  4015ac:	8b 44 24 e4          	mov    -0x1c(%rsp),%eax
  4015b0:	69 c0 b5 82 00 00    	imul   $0x82b5,%eax,%eax
  4015b6:	89 44 24 e4          	mov    %eax,-0x1c(%rsp)
  4015ba:	8b 44 24 d8          	mov    -0x28(%rsp),%eax
  4015be:	69 c0 f2 24 00 00    	imul   $0x24f2,%eax,%eax
  4015c4:	89 44 24 d8          	mov    %eax,-0x28(%rsp)
  4015c8:	8b 44 24 d8          	mov    -0x28(%rsp),%eax
  4015cc:	69 c0 08 14 00 00    	imul   $0x1408,%eax,%eax
  4015d2:	89 44 24 d8          	mov    %eax,-0x28(%rsp)
  4015d6:	8b 44 24 dc          	mov    -0x24(%rsp),%eax
  4015da:	69 c0 a7 39 00 00    	imul   $0x39a7,%eax,%eax
  4015e0:	89 44 24 dc          	mov    %eax,-0x24(%rsp)
  4015e4:	8b 44 24 ec          	mov    -0x14(%rsp),%eax
  4015e8:	69 c0 70 af 00 00    	imul   $0xaf70,%eax,%eax
  4015ee:	89 44 24 ec          	mov    %eax,-0x14(%rsp)
  4015f2:	8b 44 24 d4          	mov    -0x2c(%rsp),%eax
  4015f6:	69 c0 6e c7 00 00    	imul   $0xc76e,%eax,%eax
  4015fc:	89 44 24 d4          	mov    %eax,-0x2c(%rsp)
  401600:	8b 44 24 dc          	mov    -0x24(%rsp),%eax
  401604:	69 c0 7b cc 00 00    	imul   $0xcc7b,%eax,%eax
  40160a:	89 44 24 dc          	mov    %eax,-0x24(%rsp)
  40160e:	8b 44 24 d8          	mov    -0x28(%rsp),%eax
  401612:	69 c0 03 3a 00 00    	imul   $0x3a03,%eax,%eax
  401618:	89 44 24 d8          	mov    %eax,-0x28(%rsp)
  40161c:	8b 44 24 e8          	mov    -0x18(%rsp),%eax
  401620:	69 c0 7f 42 00 00    	imul   $0x427f,%eax,%eax
  401626:	89 44 24 e8          	mov    %eax,-0x18(%rsp)
  40162a:	8b 44 24 d0          	mov    -0x30(%rsp),%eax
  40162e:	69 c0 a4 c4 00 00    	imul   $0xc4a4,%eax,%eax
  401634:	89 44 24 d0          	mov    %eax,-0x30(%rsp)
  401638:	8b 44 24 d4          	mov    -0x2c(%rsp),%eax
  40163c:	69 c0 12 39 00 00    	imul   $0x3912,%eax,%eax
  401642:	89 44 24 d4          	mov    %eax,-0x2c(%rsp)
  401646:	8b 44 24 f4          	mov    -0xc(%rsp),%eax
  40164a:	69 c0 f2 e7 00 00    	imul   $0xe7f2,%eax,%eax
  401650:	89 44 24 f4          	mov    %eax,-0xc(%rsp)
  401654:	8b 44 24 e8          	mov    -0x18(%rsp),%eax
  401658:	69 c0 c4 5d 00 00    	imul   $0x5dc4,%eax,%eax
  40165e:	89 44 24 e8          	mov    %eax,-0x18(%rsp)
  401662:	8b 44 24 e4          	mov    -0x1c(%rsp),%eax
  401666:	69 c0 bf cb 00 00    	imul   $0xcbbf,%eax,%eax
  40166c:	89 44 24 e4          	mov    %eax,-0x1c(%rsp)
  401670:	8b 44 24 dc          	mov    -0x24(%rsp),%eax
  401674:	69 c0 04 55 00 00    	imul   $0x5504,%eax,%eax
  40167a:	89 44 24 dc          	mov    %eax,-0x24(%rsp)
  40167e:	8b 44 24 e8          	mov    -0x18(%rsp),%eax
  401682:	69 c0 9b 32 00 00    	imul   $0x329b,%eax,%eax
  401688:	89 44 24 e8          	mov    %eax,-0x18(%rsp)
  40168c:	8b 44 24 d4          	mov    -0x2c(%rsp),%eax
  401690:	69 c0 54 f3 00 00    	imul   $0xf354,%eax,%eax
  401696:	89 44 24 d4          	mov    %eax,-0x2c(%rsp)
  40169a:	8b 44 24 d0          	mov    -0x30(%rsp),%eax
  40169e:	69 c0 c0 9e 00 00    	imul   $0x9ec0,%eax,%eax
  4016a4:	89 44 24 d0          	mov    %eax,-0x30(%rsp)
  4016a8:	8b 44 24 dc          	mov    -0x24(%rsp),%eax
  4016ac:	69 c0 a5 ad 00 00    	imul   $0xada5,%eax,%eax
  4016b2:	89 44 24 dc          	mov    %eax,-0x24(%rsp)
  4016b6:	8b 44 24 ec          	mov    -0x14(%rsp),%eax
  4016ba:	69 c0 19 ef 00 00    	imul   $0xef19,%eax,%eax
  4016c0:	89 44 24 ec          	mov    %eax,-0x14(%rsp)
  4016c4:	8b 44 24 f4          	mov    -0xc(%rsp),%eax
  4016c8:	69 c0 92 4c 00 00    	imul   $0x4c92,%eax,%eax
  4016ce:	89 44 24 f4          	mov    %eax,-0xc(%rsp)
  4016d2:	8b 44 24 e0          	mov    -0x20(%rsp),%eax
  4016d6:	69 c0 08 99 00 00    	imul   $0x9908,%eax,%eax
  4016dc:	89 44 24 e0          	mov    %eax,-0x20(%rsp)
  4016e0:	8b 44 24 e4          	mov    -0x1c(%rsp),%eax
  4016e4:	69 c0 08 e3 00 00    	imul   $0xe308,%eax,%eax
  4016ea:	89 44 24 e4          	mov    %eax,-0x1c(%rsp)
  4016ee:	8b 44 24 dc          	mov    -0x24(%rsp),%eax
  4016f2:	69 c0 0e 32 00 00    	imul   $0x320e,%eax,%eax
  4016f8:	89 44 24 dc          	mov    %eax,-0x24(%rsp)
  4016fc:	8b 44 24 ec          	mov    -0x14(%rsp),%eax
  401700:	69 c0 12 1c 00 00    	imul   $0x1c12,%eax,%eax
  401706:	89 44 24 ec          	mov    %eax,-0x14(%rsp)
  40170a:	8b 44 24 d8          	mov    -0x28(%rsp),%eax
  40170e:	69 c0 cf 4a 00 00    	imul   $0x4acf,%eax,%eax
  401714:	89 44 24 d8          	mov    %eax,-0x28(%rsp)
  401718:	8b 44 24 d4          	mov    -0x2c(%rsp),%eax
  40171c:	69 c0 2e 92 00 00    	imul   $0x922e,%eax,%eax
  401722:	89 44 24 d4          	mov    %eax,-0x2c(%rsp)
  401726:	8b 44 24 e8          	mov    -0x18(%rsp),%eax
  40172a:	69 c0 e5 44 00 00    	imul   $0x44e5,%eax,%eax
  401730:	89 44 24 e8          	mov    %eax,-0x18(%rsp)
  401734:	8b 44 24 f4          	mov    -0xc(%rsp),%eax
  401738:	69 c0 99 50 00 00    	imul   $0x5099,%eax,%eax
  40173e:	89 44 24 f4          	mov    %eax,-0xc(%rsp)
  401742:	8b 44 24 e0          	mov    -0x20(%rsp),%eax
  401746:	69 c0 13 b4 00 00    	imul   $0xb413,%eax,%eax
  40174c:	89 44 24 e0          	mov    %eax,-0x20(%rsp)
  401750:	8b 44 24 e8          	mov    -0x18(%rsp),%eax
  401754:	69 c0 24 c4 00 00    	imul   $0xc424,%eax,%eax
  40175a:	89 44 24 e8          	mov    %eax,-0x18(%rsp)
  40175e:	8b 44 24 e0          	mov    -0x20(%rsp),%eax
  401762:	69 c0 58 7d 00 00    	imul   $0x7d58,%eax,%eax
  401768:	89 44 24 e0          	mov    %eax,-0x20(%rsp)
  40176c:	8b 44 24 e0          	mov    -0x20(%rsp),%eax
  401770:	69 c0 3c 3e 00 00    	imul   $0x3e3c,%eax,%eax
  401776:	89 44 24 e0          	mov    %eax,-0x20(%rsp)
  40177a:	8b 44 24 d4          	mov    -0x2c(%rsp),%eax
  40177e:	69 c0 d4 be 00 00    	imul   $0xbed4,%eax,%eax
  401784:	89 44 24 d4          	mov    %eax,-0x2c(%rsp)
  401788:	8b 44 24 d4          	mov    -0x2c(%rsp),%eax
  40178c:	69 c0 7f f4 00 00    	imul   $0xf47f,%eax,%eax
  401792:	89 44 24 d4          	mov    %eax,-0x2c(%rsp)
  401796:	8b 44 24 d4          	mov    -0x2c(%rsp),%eax
  40179a:	69 c0 f7 48 00 00    	imul   $0x48f7,%eax,%eax
  4017a0:	89 44 24 d4          	mov    %eax,-0x2c(%rsp)
  4017a4:	8b 44 24 d4          	mov    -0x2c(%rsp),%eax
  4017a8:	69 c0 74 64 00 00    	imul   $0x6474,%eax,%eax
  4017ae:	89 44 24 d4          	mov    %eax,-0x2c(%rsp)
  4017b2:	8b 44 24 e8          	mov    -0x18(%rsp),%eax
  4017b6:	69 c0 1f 5a 00 00    	imul   $0x5a1f,%eax,%eax
  4017bc:	89 44 24 e8          	mov    %eax,-0x18(%rsp)
  4017c0:	8b 44 24 e8          	mov    -0x18(%rsp),%eax
  4017c4:	69 c0 0b b5 00 00    	imul   $0xb50b,%eax,%eax
  4017ca:	89 44 24 e8          	mov    %eax,-0x18(%rsp)
  4017ce:	8b 44 24 d4          	mov    -0x2c(%rsp),%eax
  4017d2:	69 c0 03 6d 00 00    	imul   $0x6d03,%eax,%eax
  4017d8:	89 44 24 d4          	mov    %eax,-0x2c(%rsp)
  4017dc:	8b 44 24 e0          	mov    -0x20(%rsp),%eax
  4017e0:	69 c0 e1 82 00 00    	imul   $0x82e1,%eax,%eax
  4017e6:	89 44 24 e0          	mov    %eax,-0x20(%rsp)
  4017ea:	8b 44 24 d4          	mov    -0x2c(%rsp),%eax
  4017ee:	69 c0 41 26 00 00    	imul   $0x2641,%eax,%eax
  4017f4:	89 44 24 d4          	mov    %eax,-0x2c(%rsp)
  4017f8:	8b 44 24 ec          	mov    -0x14(%rsp),%eax
  4017fc:	69 c0 94 ea 00 00    	imul   $0xea94,%eax,%eax
  401802:	89 44 24 ec          	mov    %eax,-0x14(%rsp)
  401806:	8b 44 24 ec          	mov    -0x14(%rsp),%eax
  40180a:	69 c0 01 05 00 00    	imul   $0x501,%eax,%eax
  401810:	89 44 24 ec          	mov    %eax,-0x14(%rsp)
  401814:	8b 44 24 dc          	mov    -0x24(%rsp),%eax
  401818:	69 c0 cc 7b 00 00    	imul   $0x7bcc,%eax,%eax
  40181e:	89 44 24 dc          	mov    %eax,-0x24(%rsp)
  401822:	8b 44 24 e0          	mov    -0x20(%rsp),%eax
  401826:	69 c0 cb e0 00 00    	imul   $0xe0cb,%eax,%eax
  40182c:	89 44 24 e0          	mov    %eax,-0x20(%rsp)
  401830:	8b 44 24 ec          	mov    -0x14(%rsp),%eax
  401834:	69 c0 c3 9f 00 00    	imul   $0x9fc3,%eax,%eax
  40183a:	89 44 24 ec          	mov    %eax,-0x14(%rsp)
  40183e:	b8 00 00 00 00       	mov    $0x0,%eax
  401843:	ba 00 00 00 00       	mov    $0x0,%edx
  401848:	eb 0b                	jmp    401855 <scramble+0x4b0>
  40184a:	89 c1                	mov    %eax,%ecx
  40184c:	8b 4c 8c d0          	mov    -0x30(%rsp,%rcx,4),%ecx
  401850:	01 ca                	add    %ecx,%edx
  401852:	83 c0 01             	add    $0x1,%eax
  401855:	83 f8 09             	cmp    $0x9,%eax
  401858:	76 f0                	jbe    40184a <scramble+0x4a5>
  40185a:	89 d0                	mov    %edx,%eax
  40185c:	c3                   	retq   

000000000040185d <getbuf>:
  40185d:	48 83 ec 18          	sub    $0x18,%rsp
  401861:	48 89 e7             	mov    %rsp,%rdi
  401864:	e8 28 02 00 00       	callq  401a91 <Gets>
  401869:	b8 01 00 00 00       	mov    $0x1,%eax
  40186e:	48 83 c4 18          	add    $0x18,%rsp
  401872:	c3                   	retq   

0000000000401873 <touch1>:
  401873:	48 83 ec 08          	sub    $0x8,%rsp
  401877:	c7 05 83 2c 20 00 01 	movl   $0x1,0x202c83(%rip)        # 604504 <vlevel>
  40187e:	00 00 00 
  401881:	bf eb 30 40 00       	mov    $0x4030eb,%edi
  401886:	e8 e5 f4 ff ff       	callq  400d70 <puts@plt>
  40188b:	bf 01 00 00 00       	mov    $0x1,%edi
  401890:	e8 ef 03 00 00       	callq  401c84 <validate>
  401895:	bf 00 00 00 00       	mov    $0x0,%edi
  40189a:	e8 81 f6 ff ff       	callq  400f20 <exit@plt>

000000000040189f <touch2>:
  40189f:	48 83 ec 08          	sub    $0x8,%rsp
  4018a3:	89 fe                	mov    %edi,%esi
  4018a5:	c7 05 55 2c 20 00 02 	movl   $0x2,0x202c55(%rip)        # 604504 <vlevel>
  4018ac:	00 00 00 
  4018af:	39 3d 57 2c 20 00    	cmp    %edi,0x202c57(%rip)        # 60450c <cookie>
  4018b5:	74 23                	je     4018da <touch2+0x3b>
  4018b7:	bf 38 31 40 00       	mov    $0x403138,%edi
  4018bc:	b8 00 00 00 00       	mov    $0x0,%eax
  4018c1:	e8 ea f4 ff ff       	callq  400db0 <printf@plt>
  4018c6:	bf 02 00 00 00       	mov    $0x2,%edi
  4018cb:	e8 66 04 00 00       	callq  401d36 <fail>
  4018d0:	bf 00 00 00 00       	mov    $0x0,%edi
  4018d5:	e8 46 f6 ff ff       	callq  400f20 <exit@plt>
  4018da:	bf 10 31 40 00       	mov    $0x403110,%edi
  4018df:	b8 00 00 00 00       	mov    $0x0,%eax
  4018e4:	e8 c7 f4 ff ff       	callq  400db0 <printf@plt>
  4018e9:	bf 02 00 00 00       	mov    $0x2,%edi
  4018ee:	e8 91 03 00 00       	callq  401c84 <validate>
  4018f3:	eb db                	jmp    4018d0 <touch2+0x31>

00000000004018f5 <hexmatch>:
  4018f5:	41 54                	push   %r12
  4018f7:	55                   	push   %rbp
  4018f8:	53                   	push   %rbx
  4018f9:	48 83 ec 70          	sub    $0x70,%rsp
  4018fd:	89 fd                	mov    %edi,%ebp
  4018ff:	48 89 f3             	mov    %rsi,%rbx
  401902:	e8 79 f5 ff ff       	callq  400e80 <random@plt>
  401907:	48 89 c1             	mov    %rax,%rcx
  40190a:	48 ba 0b d7 a3 70 3d 	movabs $0xa3d70a3d70a3d70b,%rdx
  401911:	0a d7 a3 
  401914:	48 f7 ea             	imul   %rdx
  401917:	48 01 ca             	add    %rcx,%rdx
  40191a:	48 c1 fa 06          	sar    $0x6,%rdx
  40191e:	48 89 c8             	mov    %rcx,%rax
  401921:	48 c1 f8 3f          	sar    $0x3f,%rax
  401925:	48 29 c2             	sub    %rax,%rdx
  401928:	48 8d 04 92          	lea    (%rdx,%rdx,4),%rax
  40192c:	48 8d 04 80          	lea    (%rax,%rax,4),%rax
  401930:	48 c1 e0 02          	shl    $0x2,%rax
  401934:	48 29 c1             	sub    %rax,%rcx
  401937:	4c 8d 24 0c          	lea    (%rsp,%rcx,1),%r12
  40193b:	89 ea                	mov    %ebp,%edx
  40193d:	be 08 31 40 00       	mov    $0x403108,%esi
  401942:	4c 89 e7             	mov    %r12,%rdi
  401945:	b8 00 00 00 00       	mov    $0x0,%eax
  40194a:	e8 c1 f5 ff ff       	callq  400f10 <sprintf@plt>
  40194f:	ba 09 00 00 00       	mov    $0x9,%edx
  401954:	4c 89 e6             	mov    %r12,%rsi
  401957:	48 89 df             	mov    %rbx,%rdi
  40195a:	e8 f1 f3 ff ff       	callq  400d50 <strncmp@plt>
  40195f:	85 c0                	test   %eax,%eax
  401961:	0f 94 c0             	sete   %al
  401964:	0f b6 c0             	movzbl %al,%eax
  401967:	48 83 c4 70          	add    $0x70,%rsp
  40196b:	5b                   	pop    %rbx
  40196c:	5d                   	pop    %rbp
  40196d:	41 5c                	pop    %r12
  40196f:	c3                   	retq   

0000000000401970 <touch3>:
  401970:	53                   	push   %rbx
  401971:	48 89 fb             	mov    %rdi,%rbx
  401974:	c7 05 86 2b 20 00 03 	movl   $0x3,0x202b86(%rip)        # 604504 <vlevel>
  40197b:	00 00 00 
  40197e:	48 89 fe             	mov    %rdi,%rsi
  401981:	8b 3d 85 2b 20 00    	mov    0x202b85(%rip),%edi        # 60450c <cookie>
  401987:	e8 69 ff ff ff       	callq  4018f5 <hexmatch>
  40198c:	85 c0                	test   %eax,%eax
  40198e:	74 26                	je     4019b6 <touch3+0x46>
  401990:	48 89 de             	mov    %rbx,%rsi
  401993:	bf 60 31 40 00       	mov    $0x403160,%edi
  401998:	b8 00 00 00 00       	mov    $0x0,%eax
  40199d:	e8 0e f4 ff ff       	callq  400db0 <printf@plt>
  4019a2:	bf 03 00 00 00       	mov    $0x3,%edi
  4019a7:	e8 d8 02 00 00       	callq  401c84 <validate>
  4019ac:	bf 00 00 00 00       	mov    $0x0,%edi
  4019b1:	e8 6a f5 ff ff       	callq  400f20 <exit@plt>
  4019b6:	48 89 de             	mov    %rbx,%rsi
  4019b9:	bf 88 31 40 00       	mov    $0x403188,%edi
  4019be:	b8 00 00 00 00       	mov    $0x0,%eax
  4019c3:	e8 e8 f3 ff ff       	callq  400db0 <printf@plt>
  4019c8:	bf 03 00 00 00       	mov    $0x3,%edi
  4019cd:	e8 64 03 00 00       	callq  401d36 <fail>
  4019d2:	eb d8                	jmp    4019ac <touch3+0x3c>

00000000004019d4 <test>:
  4019d4:	48 83 ec 08          	sub    $0x8,%rsp
  4019d8:	b8 00 00 00 00       	mov    $0x0,%eax
  4019dd:	e8 7b fe ff ff       	callq  40185d <getbuf>
  4019e2:	89 c6                	mov    %eax,%esi
  4019e4:	bf b0 31 40 00       	mov    $0x4031b0,%edi
  4019e9:	b8 00 00 00 00       	mov    $0x0,%eax
  4019ee:	e8 bd f3 ff ff       	callq  400db0 <printf@plt>
  4019f3:	48 83 c4 08          	add    $0x8,%rsp
  4019f7:	c3                   	retq   

00000000004019f8 <save_char>:
  4019f8:	8b 05 26 37 20 00    	mov    0x203726(%rip),%eax        # 605124 <gets_cnt>
  4019fe:	3d ff 03 00 00       	cmp    $0x3ff,%eax
  401a03:	7f 49                	jg     401a4e <save_char+0x56>
  401a05:	89 f9                	mov    %edi,%ecx
  401a07:	c0 e9 04             	shr    $0x4,%cl
  401a0a:	8d 14 40             	lea    (%rax,%rax,2),%edx
  401a0d:	83 e1 0f             	and    $0xf,%ecx
  401a10:	0f b6 b1 d0 34 40 00 	movzbl 0x4034d0(%rcx),%esi
  401a17:	48 63 ca             	movslq %edx,%rcx
  401a1a:	40 88 b1 20 45 60 00 	mov    %sil,0x604520(%rcx)
  401a21:	8d 4a 01             	lea    0x1(%rdx),%ecx
  401a24:	83 e7 0f             	and    $0xf,%edi
  401a27:	0f b6 b7 d0 34 40 00 	movzbl 0x4034d0(%rdi),%esi
  401a2e:	48 63 c9             	movslq %ecx,%rcx
  401a31:	40 88 b1 20 45 60 00 	mov    %sil,0x604520(%rcx)
  401a38:	83 c2 02             	add    $0x2,%edx
  401a3b:	48 63 d2             	movslq %edx,%rdx
  401a3e:	c6 82 20 45 60 00 20 	movb   $0x20,0x604520(%rdx)
  401a45:	83 c0 01             	add    $0x1,%eax
  401a48:	89 05 d6 36 20 00    	mov    %eax,0x2036d6(%rip)        # 605124 <gets_cnt>
  401a4e:	c3                   	retq   

0000000000401a4f <save_term>:
  401a4f:	8b 05 cf 36 20 00    	mov    0x2036cf(%rip),%eax        # 605124 <gets_cnt>
  401a55:	8d 04 40             	lea    (%rax,%rax,2),%eax
  401a58:	48 98                	cltq   
  401a5a:	c6 80 20 45 60 00 00 	movb   $0x0,0x604520(%rax)
  401a61:	c3                   	retq   

0000000000401a62 <check_fail>:
  401a62:	48 83 ec 08          	sub    $0x8,%rsp
  401a66:	0f be 35 e3 26 20 00 	movsbl 0x2026e3(%rip),%esi        # 604150 <target_prefix>
  401a6d:	b9 20 45 60 00       	mov    $0x604520,%ecx
  401a72:	8b 15 88 2a 20 00    	mov    0x202a88(%rip),%edx        # 604500 <check_level>
  401a78:	bf d3 31 40 00       	mov    $0x4031d3,%edi
  401a7d:	b8 00 00 00 00       	mov    $0x0,%eax
  401a82:	e8 29 f3 ff ff       	callq  400db0 <printf@plt>
  401a87:	bf 01 00 00 00       	mov    $0x1,%edi
  401a8c:	e8 8f f4 ff ff       	callq  400f20 <exit@plt>

0000000000401a91 <Gets>:
  401a91:	41 54                	push   %r12
  401a93:	55                   	push   %rbp
  401a94:	53                   	push   %rbx
  401a95:	49 89 fc             	mov    %rdi,%r12
  401a98:	c7 05 82 36 20 00 00 	movl   $0x0,0x203682(%rip)        # 605124 <gets_cnt>
  401a9f:	00 00 00 
  401aa2:	48 89 fb             	mov    %rdi,%rbx
  401aa5:	eb 11                	jmp    401ab8 <Gets+0x27>
  401aa7:	48 8d 6b 01          	lea    0x1(%rbx),%rbp
  401aab:	88 03                	mov    %al,(%rbx)
  401aad:	0f b6 f8             	movzbl %al,%edi
  401ab0:	e8 43 ff ff ff       	callq  4019f8 <save_char>
  401ab5:	48 89 eb             	mov    %rbp,%rbx
  401ab8:	48 8b 3d 39 2a 20 00 	mov    0x202a39(%rip),%rdi        # 6044f8 <infile>
  401abf:	e8 cc f3 ff ff       	callq  400e90 <_IO_getc@plt>
  401ac4:	83 f8 ff             	cmp    $0xffffffff,%eax
  401ac7:	74 05                	je     401ace <Gets+0x3d>
  401ac9:	83 f8 0a             	cmp    $0xa,%eax
  401acc:	75 d9                	jne    401aa7 <Gets+0x16>
  401ace:	c6 03 00             	movb   $0x0,(%rbx)
  401ad1:	b8 00 00 00 00       	mov    $0x0,%eax
  401ad6:	e8 74 ff ff ff       	callq  401a4f <save_term>
  401adb:	4c 89 e0             	mov    %r12,%rax
  401ade:	5b                   	pop    %rbx
  401adf:	5d                   	pop    %rbp
  401ae0:	41 5c                	pop    %r12
  401ae2:	c3                   	retq   

0000000000401ae3 <notify_server>:
  401ae3:	83 3d 26 2a 20 00 00 	cmpl   $0x0,0x202a26(%rip)        # 604510 <is_checker>
  401aea:	0f 85 93 01 00 00    	jne    401c83 <notify_server+0x1a0>
  401af0:	55                   	push   %rbp
  401af1:	53                   	push   %rbx
  401af2:	48 81 ec 08 40 00 00 	sub    $0x4008,%rsp
  401af9:	89 fb                	mov    %edi,%ebx
  401afb:	81 3d 1f 36 20 00 9c 	cmpl   $0x1f9c,0x20361f(%rip)        # 605124 <gets_cnt>
  401b02:	1f 00 00 
  401b05:	0f 8f ad 00 00 00    	jg     401bb8 <notify_server+0xd5>
  401b0b:	44 0f be 0d 3d 26 20 	movsbl 0x20263d(%rip),%r9d        # 604150 <target_prefix>
  401b12:	00 
  401b13:	83 3d 8e 29 20 00 00 	cmpl   $0x0,0x20298e(%rip)        # 6044a8 <notify>
  401b1a:	0f 84 b1 00 00 00    	je     401bd1 <notify_server+0xee>
  401b20:	44 8b 05 e1 29 20 00 	mov    0x2029e1(%rip),%r8d        # 604508 <authkey>
  401b27:	85 db                	test   %ebx,%ebx
  401b29:	0f 84 ad 00 00 00    	je     401bdc <notify_server+0xf9>
  401b2f:	bd ee 31 40 00       	mov    $0x4031ee,%ebp
  401b34:	68 20 45 60 00       	pushq  $0x604520
  401b39:	56                   	push   %rsi
  401b3a:	48 89 e9             	mov    %rbp,%rcx
  401b3d:	8b 15 25 26 20 00    	mov    0x202625(%rip),%edx        # 604168 <target_id>
  401b43:	be f3 31 40 00       	mov    $0x4031f3,%esi
  401b48:	48 8d bc 24 10 20 00 	lea    0x2010(%rsp),%rdi
  401b4f:	00 
  401b50:	b8 00 00 00 00       	mov    $0x0,%eax
  401b55:	e8 b6 f3 ff ff       	callq  400f10 <sprintf@plt>
  401b5a:	48 83 c4 10          	add    $0x10,%rsp
  401b5e:	83 3d 43 29 20 00 00 	cmpl   $0x0,0x202943(%rip)        # 6044a8 <notify>
  401b65:	0f 84 ab 00 00 00    	je     401c16 <notify_server+0x133>
  401b6b:	85 db                	test   %ebx,%ebx
  401b6d:	0f 84 8f 00 00 00    	je     401c02 <notify_server+0x11f>
  401b73:	49 89 e1             	mov    %rsp,%r9
  401b76:	41 b8 00 00 00 00    	mov    $0x0,%r8d
  401b7c:	48 8d 8c 24 00 20 00 	lea    0x2000(%rsp),%rcx
  401b83:	00 
  401b84:	48 8b 15 e5 25 20 00 	mov    0x2025e5(%rip),%rdx        # 604170 <lab>
  401b8b:	48 8b 35 0e 29 20 00 	mov    0x20290e(%rip),%rsi        # 6044a0 <course>
  401b92:	48 8b 3d c7 25 20 00 	mov    0x2025c7(%rip),%rdi        # 604160 <user_id>
  401b99:	e8 f4 0f 00 00       	callq  402b92 <driver_post>
  401b9e:	85 c0                	test   %eax,%eax
  401ba0:	78 44                	js     401be6 <notify_server+0x103>
  401ba2:	bf 38 33 40 00       	mov    $0x403338,%edi
  401ba7:	e8 c4 f1 ff ff       	callq  400d70 <puts@plt>
  401bac:	bf 1b 32 40 00       	mov    $0x40321b,%edi
  401bb1:	e8 ba f1 ff ff       	callq  400d70 <puts@plt>
  401bb6:	eb 54                	jmp    401c0c <notify_server+0x129>
  401bb8:	bf 08 33 40 00       	mov    $0x403308,%edi
  401bbd:	b8 00 00 00 00       	mov    $0x0,%eax
  401bc2:	e8 e9 f1 ff ff       	callq  400db0 <printf@plt>
  401bc7:	bf 01 00 00 00       	mov    $0x1,%edi
  401bcc:	e8 4f f3 ff ff       	callq  400f20 <exit@plt>
  401bd1:	41 b8 ff ff ff ff    	mov    $0xffffffff,%r8d
  401bd7:	e9 4b ff ff ff       	jmpq   401b27 <notify_server+0x44>
  401bdc:	bd e9 31 40 00       	mov    $0x4031e9,%ebp
  401be1:	e9 4e ff ff ff       	jmpq   401b34 <notify_server+0x51>
  401be6:	48 89 e6             	mov    %rsp,%rsi
  401be9:	bf 0f 32 40 00       	mov    $0x40320f,%edi
  401bee:	b8 00 00 00 00       	mov    $0x0,%eax
  401bf3:	e8 b8 f1 ff ff       	callq  400db0 <printf@plt>
  401bf8:	bf 01 00 00 00       	mov    $0x1,%edi
  401bfd:	e8 1e f3 ff ff       	callq  400f20 <exit@plt>
  401c02:	bf 25 32 40 00       	mov    $0x403225,%edi
  401c07:	e8 64 f1 ff ff       	callq  400d70 <puts@plt>
  401c0c:	48 81 c4 08 40 00 00 	add    $0x4008,%rsp
  401c13:	5b                   	pop    %rbx
  401c14:	5d                   	pop    %rbp
  401c15:	c3                   	retq   
  401c16:	48 89 ee             	mov    %rbp,%rsi
  401c19:	bf 70 33 40 00       	mov    $0x403370,%edi
  401c1e:	b8 00 00 00 00       	mov    $0x0,%eax
  401c23:	e8 88 f1 ff ff       	callq  400db0 <printf@plt>
  401c28:	48 8b 35 31 25 20 00 	mov    0x202531(%rip),%rsi        # 604160 <user_id>
  401c2f:	bf 2c 32 40 00       	mov    $0x40322c,%edi
  401c34:	b8 00 00 00 00       	mov    $0x0,%eax
  401c39:	e8 72 f1 ff ff       	callq  400db0 <printf@plt>
  401c3e:	48 8b 35 5b 28 20 00 	mov    0x20285b(%rip),%rsi        # 6044a0 <course>
  401c45:	bf 39 32 40 00       	mov    $0x403239,%edi
  401c4a:	b8 00 00 00 00       	mov    $0x0,%eax
  401c4f:	e8 5c f1 ff ff       	callq  400db0 <printf@plt>
  401c54:	48 8b 35 15 25 20 00 	mov    0x202515(%rip),%rsi        # 604170 <lab>
  401c5b:	bf 45 32 40 00       	mov    $0x403245,%edi
  401c60:	b8 00 00 00 00       	mov    $0x0,%eax
  401c65:	e8 46 f1 ff ff       	callq  400db0 <printf@plt>
  401c6a:	48 8d b4 24 00 20 00 	lea    0x2000(%rsp),%rsi
  401c71:	00 
  401c72:	bf 4e 32 40 00       	mov    $0x40324e,%edi
  401c77:	b8 00 00 00 00       	mov    $0x0,%eax
  401c7c:	e8 2f f1 ff ff       	callq  400db0 <printf@plt>
  401c81:	eb 89                	jmp    401c0c <notify_server+0x129>
  401c83:	c3                   	retq   

0000000000401c84 <validate>:
  401c84:	53                   	push   %rbx
  401c85:	89 fb                	mov    %edi,%ebx
  401c87:	83 3d 82 28 20 00 00 	cmpl   $0x0,0x202882(%rip)        # 604510 <is_checker>
  401c8e:	74 60                	je     401cf0 <validate+0x6c>
  401c90:	39 3d 6e 28 20 00    	cmp    %edi,0x20286e(%rip)        # 604504 <vlevel>
  401c96:	75 29                	jne    401cc1 <validate+0x3d>
  401c98:	8b 35 62 28 20 00    	mov    0x202862(%rip),%esi        # 604500 <check_level>
  401c9e:	39 fe                	cmp    %edi,%esi
  401ca0:	75 33                	jne    401cd5 <validate+0x51>
  401ca2:	0f be 35 a7 24 20 00 	movsbl 0x2024a7(%rip),%esi        # 604150 <target_prefix>
  401ca9:	b9 20 45 60 00       	mov    $0x604520,%ecx
  401cae:	89 fa                	mov    %edi,%edx
  401cb0:	bf 78 32 40 00       	mov    $0x403278,%edi
  401cb5:	b8 00 00 00 00       	mov    $0x0,%eax
  401cba:	e8 f1 f0 ff ff       	callq  400db0 <printf@plt>
  401cbf:	5b                   	pop    %rbx
  401cc0:	c3                   	retq   
  401cc1:	bf 5a 32 40 00       	mov    $0x40325a,%edi
  401cc6:	e8 a5 f0 ff ff       	callq  400d70 <puts@plt>
  401ccb:	b8 00 00 00 00       	mov    $0x0,%eax
  401cd0:	e8 8d fd ff ff       	callq  401a62 <check_fail>
  401cd5:	89 fa                	mov    %edi,%edx
  401cd7:	bf 98 33 40 00       	mov    $0x403398,%edi
  401cdc:	b8 00 00 00 00       	mov    $0x0,%eax
  401ce1:	e8 ca f0 ff ff       	callq  400db0 <printf@plt>
  401ce6:	b8 00 00 00 00       	mov    $0x0,%eax
  401ceb:	e8 72 fd ff ff       	callq  401a62 <check_fail>
  401cf0:	39 3d 0e 28 20 00    	cmp    %edi,0x20280e(%rip)        # 604504 <vlevel>
  401cf6:	74 18                	je     401d10 <validate+0x8c>
  401cf8:	bf 5a 32 40 00       	mov    $0x40325a,%edi
  401cfd:	e8 6e f0 ff ff       	callq  400d70 <puts@plt>
  401d02:	89 de                	mov    %ebx,%esi
  401d04:	bf 00 00 00 00       	mov    $0x0,%edi
  401d09:	e8 d5 fd ff ff       	callq  401ae3 <notify_server>
  401d0e:	eb af                	jmp    401cbf <validate+0x3b>
  401d10:	0f be 15 39 24 20 00 	movsbl 0x202439(%rip),%edx        # 604150 <target_prefix>
  401d17:	89 fe                	mov    %edi,%esi
  401d19:	bf c0 33 40 00       	mov    $0x4033c0,%edi
  401d1e:	b8 00 00 00 00       	mov    $0x0,%eax
  401d23:	e8 88 f0 ff ff       	callq  400db0 <printf@plt>
  401d28:	89 de                	mov    %ebx,%esi
  401d2a:	bf 01 00 00 00       	mov    $0x1,%edi
  401d2f:	e8 af fd ff ff       	callq  401ae3 <notify_server>
  401d34:	eb 89                	jmp    401cbf <validate+0x3b>

0000000000401d36 <fail>:
  401d36:	48 83 ec 08          	sub    $0x8,%rsp
  401d3a:	83 3d cf 27 20 00 00 	cmpl   $0x0,0x2027cf(%rip)        # 604510 <is_checker>
  401d41:	75 11                	jne    401d54 <fail+0x1e>
  401d43:	89 fe                	mov    %edi,%esi
  401d45:	bf 00 00 00 00       	mov    $0x0,%edi
  401d4a:	e8 94 fd ff ff       	callq  401ae3 <notify_server>
  401d4f:	48 83 c4 08          	add    $0x8,%rsp
  401d53:	c3                   	retq   
  401d54:	b8 00 00 00 00       	mov    $0x0,%eax
  401d59:	e8 04 fd ff ff       	callq  401a62 <check_fail>

0000000000401d5e <bushandler>:
  401d5e:	48 83 ec 08          	sub    $0x8,%rsp
  401d62:	83 3d a7 27 20 00 00 	cmpl   $0x0,0x2027a7(%rip)        # 604510 <is_checker>
  401d69:	74 14                	je     401d7f <bushandler+0x21>
  401d6b:	bf 8d 32 40 00       	mov    $0x40328d,%edi
  401d70:	e8 fb ef ff ff       	callq  400d70 <puts@plt>
  401d75:	b8 00 00 00 00       	mov    $0x0,%eax
  401d7a:	e8 e3 fc ff ff       	callq  401a62 <check_fail>
  401d7f:	bf f8 33 40 00       	mov    $0x4033f8,%edi
  401d84:	e8 e7 ef ff ff       	callq  400d70 <puts@plt>
  401d89:	bf 97 32 40 00       	mov    $0x403297,%edi
  401d8e:	e8 dd ef ff ff       	callq  400d70 <puts@plt>
  401d93:	be 00 00 00 00       	mov    $0x0,%esi
  401d98:	bf 00 00 00 00       	mov    $0x0,%edi
  401d9d:	e8 41 fd ff ff       	callq  401ae3 <notify_server>
  401da2:	bf 01 00 00 00       	mov    $0x1,%edi
  401da7:	e8 74 f1 ff ff       	callq  400f20 <exit@plt>

0000000000401dac <seghandler>:
  401dac:	48 83 ec 08          	sub    $0x8,%rsp
  401db0:	83 3d 59 27 20 00 00 	cmpl   $0x0,0x202759(%rip)        # 604510 <is_checker>
  401db7:	74 14                	je     401dcd <seghandler+0x21>
  401db9:	bf ad 32 40 00       	mov    $0x4032ad,%edi
  401dbe:	e8 ad ef ff ff       	callq  400d70 <puts@plt>
  401dc3:	b8 00 00 00 00       	mov    $0x0,%eax
  401dc8:	e8 95 fc ff ff       	callq  401a62 <check_fail>
  401dcd:	bf 18 34 40 00       	mov    $0x403418,%edi
  401dd2:	e8 99 ef ff ff       	callq  400d70 <puts@plt>
  401dd7:	bf 97 32 40 00       	mov    $0x403297,%edi
  401ddc:	e8 8f ef ff ff       	callq  400d70 <puts@plt>
  401de1:	be 00 00 00 00       	mov    $0x0,%esi
  401de6:	bf 00 00 00 00       	mov    $0x0,%edi
  401deb:	e8 f3 fc ff ff       	callq  401ae3 <notify_server>
  401df0:	bf 01 00 00 00       	mov    $0x1,%edi
  401df5:	e8 26 f1 ff ff       	callq  400f20 <exit@plt>

0000000000401dfa <illegalhandler>:
  401dfa:	48 83 ec 08          	sub    $0x8,%rsp
  401dfe:	83 3d 0b 27 20 00 00 	cmpl   $0x0,0x20270b(%rip)        # 604510 <is_checker>
  401e05:	74 14                	je     401e1b <illegalhandler+0x21>
  401e07:	bf c0 32 40 00       	mov    $0x4032c0,%edi
  401e0c:	e8 5f ef ff ff       	callq  400d70 <puts@plt>
  401e11:	b8 00 00 00 00       	mov    $0x0,%eax
  401e16:	e8 47 fc ff ff       	callq  401a62 <check_fail>
  401e1b:	bf 40 34 40 00       	mov    $0x403440,%edi
  401e20:	e8 4b ef ff ff       	callq  400d70 <puts@plt>
  401e25:	bf 97 32 40 00       	mov    $0x403297,%edi
  401e2a:	e8 41 ef ff ff       	callq  400d70 <puts@plt>
  401e2f:	be 00 00 00 00       	mov    $0x0,%esi
  401e34:	bf 00 00 00 00       	mov    $0x0,%edi
  401e39:	e8 a5 fc ff ff       	callq  401ae3 <notify_server>
  401e3e:	bf 01 00 00 00       	mov    $0x1,%edi
  401e43:	e8 d8 f0 ff ff       	callq  400f20 <exit@plt>

0000000000401e48 <sigalrmhandler>:
  401e48:	48 83 ec 08          	sub    $0x8,%rsp
  401e4c:	83 3d bd 26 20 00 00 	cmpl   $0x0,0x2026bd(%rip)        # 604510 <is_checker>
  401e53:	74 14                	je     401e69 <sigalrmhandler+0x21>
  401e55:	bf d4 32 40 00       	mov    $0x4032d4,%edi
  401e5a:	e8 11 ef ff ff       	callq  400d70 <puts@plt>
  401e5f:	b8 00 00 00 00       	mov    $0x0,%eax
  401e64:	e8 f9 fb ff ff       	callq  401a62 <check_fail>
  401e69:	be 05 00 00 00       	mov    $0x5,%esi
  401e6e:	bf 70 34 40 00       	mov    $0x403470,%edi
  401e73:	b8 00 00 00 00       	mov    $0x0,%eax
  401e78:	e8 33 ef ff ff       	callq  400db0 <printf@plt>
  401e7d:	be 00 00 00 00       	mov    $0x0,%esi
  401e82:	bf 00 00 00 00       	mov    $0x0,%edi
  401e87:	e8 57 fc ff ff       	callq  401ae3 <notify_server>
  401e8c:	bf 01 00 00 00       	mov    $0x1,%edi
  401e91:	e8 8a f0 ff ff       	callq  400f20 <exit@plt>

0000000000401e96 <launch>:
  401e96:	55                   	push   %rbp
  401e97:	48 89 e5             	mov    %rsp,%rbp
  401e9a:	48 89 fa             	mov    %rdi,%rdx
  401e9d:	48 8d 47 17          	lea    0x17(%rdi),%rax
  401ea1:	48 83 e0 f0          	and    $0xfffffffffffffff0,%rax
  401ea5:	48 29 c4             	sub    %rax,%rsp
  401ea8:	48 8d 7c 24 0f       	lea    0xf(%rsp),%rdi
  401ead:	48 83 e7 f0          	and    $0xfffffffffffffff0,%rdi
  401eb1:	be f4 00 00 00       	mov    $0xf4,%esi
  401eb6:	e8 05 ef ff ff       	callq  400dc0 <memset@plt>
  401ebb:	48 8b 05 fe 25 20 00 	mov    0x2025fe(%rip),%rax        # 6044c0 <stdin@@GLIBC_2.2.5>
  401ec2:	48 39 05 2f 26 20 00 	cmp    %rax,0x20262f(%rip)        # 6044f8 <infile>
  401ec9:	74 29                	je     401ef4 <launch+0x5e>
  401ecb:	c7 05 2f 26 20 00 00 	movl   $0x0,0x20262f(%rip)        # 604504 <vlevel>
  401ed2:	00 00 00 
  401ed5:	b8 00 00 00 00       	mov    $0x0,%eax
  401eda:	e8 f5 fa ff ff       	callq  4019d4 <test>
  401edf:	83 3d 2a 26 20 00 00 	cmpl   $0x0,0x20262a(%rip)        # 604510 <is_checker>
  401ee6:	75 1d                	jne    401f05 <launch+0x6f>
  401ee8:	bf f4 32 40 00       	mov    $0x4032f4,%edi
  401eed:	e8 7e ee ff ff       	callq  400d70 <puts@plt>
  401ef2:	c9                   	leaveq 
  401ef3:	c3                   	retq   
  401ef4:	bf dc 32 40 00       	mov    $0x4032dc,%edi
  401ef9:	b8 00 00 00 00       	mov    $0x0,%eax
  401efe:	e8 ad ee ff ff       	callq  400db0 <printf@plt>
  401f03:	eb c6                	jmp    401ecb <launch+0x35>
  401f05:	bf e9 32 40 00       	mov    $0x4032e9,%edi
  401f0a:	e8 61 ee ff ff       	callq  400d70 <puts@plt>
  401f0f:	b8 00 00 00 00       	mov    $0x0,%eax
  401f14:	e8 49 fb ff ff       	callq  401a62 <check_fail>

0000000000401f19 <stable_launch>:
  401f19:	53                   	push   %rbx
  401f1a:	48 89 3d cf 25 20 00 	mov    %rdi,0x2025cf(%rip)        # 6044f0 <global_offset>
  401f21:	41 b9 00 00 00 00    	mov    $0x0,%r9d
  401f27:	41 b8 00 00 00 00    	mov    $0x0,%r8d
  401f2d:	b9 32 01 00 00       	mov    $0x132,%ecx
  401f32:	ba 07 00 00 00       	mov    $0x7,%edx
  401f37:	be 00 00 10 00       	mov    $0x100000,%esi
  401f3c:	bf 00 60 58 55       	mov    $0x55586000,%edi
  401f41:	e8 5a ee ff ff       	callq  400da0 <mmap@plt>
  401f46:	48 89 c3             	mov    %rax,%rbx
  401f49:	48 3d 00 60 58 55    	cmp    $0x55586000,%rax
  401f4f:	75 43                	jne    401f94 <stable_launch+0x7b>
  401f51:	48 8d 90 f8 ff 0f 00 	lea    0xffff8(%rax),%rdx
  401f58:	48 89 15 89 25 20 00 	mov    %rdx,0x202589(%rip)        # 6044e8 <stack_top>
  401f5f:	48 89 e0             	mov    %rsp,%rax
  401f62:	48 89 d4             	mov    %rdx,%rsp
  401f65:	48 89 c2             	mov    %rax,%rdx
  401f68:	48 89 15 71 25 20 00 	mov    %rdx,0x202571(%rip)        # 6044e0 <global_save_stack>
  401f6f:	48 8b 3d 7a 25 20 00 	mov    0x20257a(%rip),%rdi        # 6044f0 <global_offset>
  401f76:	e8 1b ff ff ff       	callq  401e96 <launch>
  401f7b:	48 8b 05 5e 25 20 00 	mov    0x20255e(%rip),%rax        # 6044e0 <global_save_stack>
  401f82:	48 89 c4             	mov    %rax,%rsp
  401f85:	be 00 00 10 00       	mov    $0x100000,%esi
  401f8a:	48 89 df             	mov    %rbx,%rdi
  401f8d:	e8 1e ef ff ff       	callq  400eb0 <munmap@plt>
  401f92:	5b                   	pop    %rbx
  401f93:	c3                   	retq   
  401f94:	be 00 00 10 00       	mov    $0x100000,%esi
  401f99:	48 89 c7             	mov    %rax,%rdi
  401f9c:	e8 0f ef ff ff       	callq  400eb0 <munmap@plt>
  401fa1:	ba 00 60 58 55       	mov    $0x55586000,%edx
  401fa6:	be a8 34 40 00       	mov    $0x4034a8,%esi
  401fab:	48 8b 3d 1e 25 20 00 	mov    0x20251e(%rip),%rdi        # 6044d0 <stderr@@GLIBC_2.2.5>
  401fb2:	b8 00 00 00 00       	mov    $0x0,%eax
  401fb7:	e8 74 ee ff ff       	callq  400e30 <fprintf@plt>
  401fbc:	bf 01 00 00 00       	mov    $0x1,%edi
  401fc1:	e8 5a ef ff ff       	callq  400f20 <exit@plt>

0000000000401fc6 <rio_readinitb>:
  401fc6:	89 37                	mov    %esi,(%rdi)
  401fc8:	c7 47 04 00 00 00 00 	movl   $0x0,0x4(%rdi)
  401fcf:	48 8d 47 10          	lea    0x10(%rdi),%rax
  401fd3:	48 89 47 08          	mov    %rax,0x8(%rdi)
  401fd7:	c3                   	retq   

0000000000401fd8 <sigalrm_handler>:
  401fd8:	48 83 ec 08          	sub    $0x8,%rsp
  401fdc:	ba 00 00 00 00       	mov    $0x0,%edx
  401fe1:	be e0 34 40 00       	mov    $0x4034e0,%esi
  401fe6:	48 8b 3d e3 24 20 00 	mov    0x2024e3(%rip),%rdi        # 6044d0 <stderr@@GLIBC_2.2.5>
  401fed:	b8 00 00 00 00       	mov    $0x0,%eax
  401ff2:	e8 39 ee ff ff       	callq  400e30 <fprintf@plt>
  401ff7:	bf 01 00 00 00       	mov    $0x1,%edi
  401ffc:	e8 1f ef ff ff       	callq  400f20 <exit@plt>

0000000000402001 <urlencode>:
  402001:	41 54                	push   %r12
  402003:	55                   	push   %rbp
  402004:	53                   	push   %rbx
  402005:	48 83 ec 10          	sub    $0x10,%rsp
  402009:	48 89 fb             	mov    %rdi,%rbx
  40200c:	48 89 f5             	mov    %rsi,%rbp
  40200f:	e8 7c ed ff ff       	callq  400d90 <strlen@plt>
  402014:	eb 0e                	jmp    402024 <urlencode+0x23>
  402016:	88 55 00             	mov    %dl,0x0(%rbp)
  402019:	48 8d 6d 01          	lea    0x1(%rbp),%rbp
  40201d:	48 83 c3 01          	add    $0x1,%rbx
  402021:	44 89 e0             	mov    %r12d,%eax
  402024:	44 8d 60 ff          	lea    -0x1(%rax),%r12d
  402028:	85 c0                	test   %eax,%eax
  40202a:	0f 84 93 00 00 00    	je     4020c3 <urlencode+0xc2>
  402030:	0f b6 13             	movzbl (%rbx),%edx
  402033:	80 fa 2a             	cmp    $0x2a,%dl
  402036:	0f 94 c1             	sete   %cl
  402039:	80 fa 2d             	cmp    $0x2d,%dl
  40203c:	0f 94 c0             	sete   %al
  40203f:	08 c1                	or     %al,%cl
  402041:	75 d3                	jne    402016 <urlencode+0x15>
  402043:	80 fa 2e             	cmp    $0x2e,%dl
  402046:	74 ce                	je     402016 <urlencode+0x15>
  402048:	80 fa 5f             	cmp    $0x5f,%dl
  40204b:	74 c9                	je     402016 <urlencode+0x15>
  40204d:	8d 42 d0             	lea    -0x30(%rdx),%eax
  402050:	3c 09                	cmp    $0x9,%al
  402052:	76 c2                	jbe    402016 <urlencode+0x15>
  402054:	8d 42 bf             	lea    -0x41(%rdx),%eax
  402057:	3c 19                	cmp    $0x19,%al
  402059:	76 bb                	jbe    402016 <urlencode+0x15>
  40205b:	8d 42 9f             	lea    -0x61(%rdx),%eax
  40205e:	3c 19                	cmp    $0x19,%al
  402060:	76 b4                	jbe    402016 <urlencode+0x15>
  402062:	80 fa 20             	cmp    $0x20,%dl
  402065:	74 4a                	je     4020b1 <urlencode+0xb0>
  402067:	8d 42 e0             	lea    -0x20(%rdx),%eax
  40206a:	3c 5f                	cmp    $0x5f,%al
  40206c:	0f 96 c1             	setbe  %cl
  40206f:	80 fa 09             	cmp    $0x9,%dl
  402072:	0f 94 c0             	sete   %al
  402075:	08 c1                	or     %al,%cl
  402077:	74 45                	je     4020be <urlencode+0xbd>
  402079:	0f b6 d2             	movzbl %dl,%edx
  40207c:	be 78 35 40 00       	mov    $0x403578,%esi
  402081:	48 8d 7c 24 08       	lea    0x8(%rsp),%rdi
  402086:	b8 00 00 00 00       	mov    $0x0,%eax
  40208b:	e8 80 ee ff ff       	callq  400f10 <sprintf@plt>
  402090:	0f b6 44 24 08       	movzbl 0x8(%rsp),%eax
  402095:	88 45 00             	mov    %al,0x0(%rbp)
  402098:	0f b6 44 24 09       	movzbl 0x9(%rsp),%eax
  40209d:	88 45 01             	mov    %al,0x1(%rbp)
  4020a0:	0f b6 44 24 0a       	movzbl 0xa(%rsp),%eax
  4020a5:	88 45 02             	mov    %al,0x2(%rbp)
  4020a8:	48 8d 6d 03          	lea    0x3(%rbp),%rbp
  4020ac:	e9 6c ff ff ff       	jmpq   40201d <urlencode+0x1c>
  4020b1:	c6 45 00 2b          	movb   $0x2b,0x0(%rbp)
  4020b5:	48 8d 6d 01          	lea    0x1(%rbp),%rbp
  4020b9:	e9 5f ff ff ff       	jmpq   40201d <urlencode+0x1c>
  4020be:	b8 ff ff ff ff       	mov    $0xffffffff,%eax
  4020c3:	48 83 c4 10          	add    $0x10,%rsp
  4020c7:	5b                   	pop    %rbx
  4020c8:	5d                   	pop    %rbp
  4020c9:	41 5c                	pop    %r12
  4020cb:	c3                   	retq   

00000000004020cc <rio_writen>:
  4020cc:	41 55                	push   %r13
  4020ce:	41 54                	push   %r12
  4020d0:	55                   	push   %rbp
  4020d1:	53                   	push   %rbx
  4020d2:	48 83 ec 08          	sub    $0x8,%rsp
  4020d6:	41 89 fc             	mov    %edi,%r12d
  4020d9:	48 89 f5             	mov    %rsi,%rbp
  4020dc:	49 89 d5             	mov    %rdx,%r13
  4020df:	48 89 d3             	mov    %rdx,%rbx
  4020e2:	eb 06                	jmp    4020ea <rio_writen+0x1e>
  4020e4:	48 29 c3             	sub    %rax,%rbx
  4020e7:	48 01 c5             	add    %rax,%rbp
  4020ea:	48 85 db             	test   %rbx,%rbx
  4020ed:	74 24                	je     402113 <rio_writen+0x47>
  4020ef:	48 89 da             	mov    %rbx,%rdx
  4020f2:	48 89 ee             	mov    %rbp,%rsi
  4020f5:	44 89 e7             	mov    %r12d,%edi
  4020f8:	e8 83 ec ff ff       	callq  400d80 <write@plt>
  4020fd:	48 85 c0             	test   %rax,%rax
  402100:	7f e2                	jg     4020e4 <rio_writen+0x18>
  402102:	e8 29 ec ff ff       	callq  400d30 <__errno_location@plt>
  402107:	83 38 04             	cmpl   $0x4,(%rax)
  40210a:	75 15                	jne    402121 <rio_writen+0x55>
  40210c:	b8 00 00 00 00       	mov    $0x0,%eax
  402111:	eb d1                	jmp    4020e4 <rio_writen+0x18>
  402113:	4c 89 e8             	mov    %r13,%rax
  402116:	48 83 c4 08          	add    $0x8,%rsp
  40211a:	5b                   	pop    %rbx
  40211b:	5d                   	pop    %rbp
  40211c:	41 5c                	pop    %r12
  40211e:	41 5d                	pop    %r13
  402120:	c3                   	retq   
  402121:	48 c7 c0 ff ff ff ff 	mov    $0xffffffffffffffff,%rax
  402128:	eb ec                	jmp    402116 <rio_writen+0x4a>

000000000040212a <rio_read>:
  40212a:	41 55                	push   %r13
  40212c:	41 54                	push   %r12
  40212e:	55                   	push   %rbp
  40212f:	53                   	push   %rbx
  402130:	48 83 ec 08          	sub    $0x8,%rsp
  402134:	48 89 fb             	mov    %rdi,%rbx
  402137:	49 89 f5             	mov    %rsi,%r13
  40213a:	49 89 d4             	mov    %rdx,%r12
  40213d:	eb 0a                	jmp    402149 <rio_read+0x1f>
  40213f:	e8 ec eb ff ff       	callq  400d30 <__errno_location@plt>
  402144:	83 38 04             	cmpl   $0x4,(%rax)
  402147:	75 5a                	jne    4021a3 <rio_read+0x79>
  402149:	8b 6b 04             	mov    0x4(%rbx),%ebp
  40214c:	85 ed                	test   %ebp,%ebp
  40214e:	7f 22                	jg     402172 <rio_read+0x48>
  402150:	48 8d 6b 10          	lea    0x10(%rbx),%rbp
  402154:	ba 00 20 00 00       	mov    $0x2000,%edx
  402159:	48 89 ee             	mov    %rbp,%rsi
  40215c:	8b 3b                	mov    (%rbx),%edi
  40215e:	e8 8d ec ff ff       	callq  400df0 <read@plt>
  402163:	89 43 04             	mov    %eax,0x4(%rbx)
  402166:	85 c0                	test   %eax,%eax
  402168:	78 d5                	js     40213f <rio_read+0x15>
  40216a:	74 40                	je     4021ac <rio_read+0x82>
  40216c:	48 89 6b 08          	mov    %rbp,0x8(%rbx)
  402170:	eb d7                	jmp    402149 <rio_read+0x1f>
  402172:	89 e8                	mov    %ebp,%eax
  402174:	4c 39 e0             	cmp    %r12,%rax
  402177:	72 03                	jb     40217c <rio_read+0x52>
  402179:	44 89 e5             	mov    %r12d,%ebp
  40217c:	4c 63 e5             	movslq %ebp,%r12
  40217f:	48 8b 73 08          	mov    0x8(%rbx),%rsi
  402183:	4c 89 e2             	mov    %r12,%rdx
  402186:	4c 89 ef             	mov    %r13,%rdi
  402189:	e8 d2 ec ff ff       	callq  400e60 <memcpy@plt>
  40218e:	4c 01 63 08          	add    %r12,0x8(%rbx)
  402192:	29 6b 04             	sub    %ebp,0x4(%rbx)
  402195:	4c 89 e0             	mov    %r12,%rax
  402198:	48 83 c4 08          	add    $0x8,%rsp
  40219c:	5b                   	pop    %rbx
  40219d:	5d                   	pop    %rbp
  40219e:	41 5c                	pop    %r12
  4021a0:	41 5d                	pop    %r13
  4021a2:	c3                   	retq   
  4021a3:	48 c7 c0 ff ff ff ff 	mov    $0xffffffffffffffff,%rax
  4021aa:	eb ec                	jmp    402198 <rio_read+0x6e>
  4021ac:	b8 00 00 00 00       	mov    $0x0,%eax
  4021b1:	eb e5                	jmp    402198 <rio_read+0x6e>

00000000004021b3 <rio_readlineb>:
  4021b3:	41 55                	push   %r13
  4021b5:	41 54                	push   %r12
  4021b7:	55                   	push   %rbp
  4021b8:	53                   	push   %rbx
  4021b9:	48 83 ec 18          	sub    $0x18,%rsp
  4021bd:	49 89 fd             	mov    %rdi,%r13
  4021c0:	48 89 f5             	mov    %rsi,%rbp
  4021c3:	49 89 d4             	mov    %rdx,%r12
  4021c6:	bb 01 00 00 00       	mov    $0x1,%ebx
  4021cb:	eb 18                	jmp    4021e5 <rio_readlineb+0x32>
  4021cd:	85 c0                	test   %eax,%eax
  4021cf:	75 55                	jne    402226 <rio_readlineb+0x73>
  4021d1:	48 83 fb 01          	cmp    $0x1,%rbx
  4021d5:	75 3d                	jne    402214 <rio_readlineb+0x61>
  4021d7:	b8 00 00 00 00       	mov    $0x0,%eax
  4021dc:	eb 3d                	jmp    40221b <rio_readlineb+0x68>
  4021de:	48 83 c3 01          	add    $0x1,%rbx
  4021e2:	48 89 d5             	mov    %rdx,%rbp
  4021e5:	4c 39 e3             	cmp    %r12,%rbx
  4021e8:	73 2a                	jae    402214 <rio_readlineb+0x61>
  4021ea:	ba 01 00 00 00       	mov    $0x1,%edx
  4021ef:	48 8d 74 24 0f       	lea    0xf(%rsp),%rsi
  4021f4:	4c 89 ef             	mov    %r13,%rdi
  4021f7:	e8 2e ff ff ff       	callq  40212a <rio_read>
  4021fc:	83 f8 01             	cmp    $0x1,%eax
  4021ff:	75 cc                	jne    4021cd <rio_readlineb+0x1a>
  402201:	48 8d 55 01          	lea    0x1(%rbp),%rdx
  402205:	0f b6 44 24 0f       	movzbl 0xf(%rsp),%eax
  40220a:	88 45 00             	mov    %al,0x0(%rbp)
  40220d:	3c 0a                	cmp    $0xa,%al
  40220f:	75 cd                	jne    4021de <rio_readlineb+0x2b>
  402211:	48 89 d5             	mov    %rdx,%rbp
  402214:	c6 45 00 00          	movb   $0x0,0x0(%rbp)
  402218:	48 89 d8             	mov    %rbx,%rax
  40221b:	48 83 c4 18          	add    $0x18,%rsp
  40221f:	5b                   	pop    %rbx
  402220:	5d                   	pop    %rbp
  402221:	41 5c                	pop    %r12
  402223:	41 5d                	pop    %r13
  402225:	c3                   	retq   
  402226:	48 c7 c0 ff ff ff ff 	mov    $0xffffffffffffffff,%rax
  40222d:	eb ec                	jmp    40221b <rio_readlineb+0x68>

000000000040222f <submitr>:
  40222f:	41 57                	push   %r15
  402231:	41 56                	push   %r14
  402233:	41 55                	push   %r13
  402235:	41 54                	push   %r12
  402237:	55                   	push   %rbp
  402238:	53                   	push   %rbx
  402239:	48 81 ec 58 a0 00 00 	sub    $0xa058,%rsp
  402240:	49 89 fc             	mov    %rdi,%r12
  402243:	41 89 f7             	mov    %esi,%r15d
  402246:	49 89 d6             	mov    %rdx,%r14
  402249:	48 89 4c 24 08       	mov    %rcx,0x8(%rsp)
  40224e:	4c 89 44 24 10       	mov    %r8,0x10(%rsp)
  402253:	4d 89 cd             	mov    %r9,%r13
  402256:	48 8b ac 24 90 a0 00 	mov    0xa090(%rsp),%rbp
  40225d:	00 
  40225e:	c7 84 24 2c 20 00 00 	movl   $0x0,0x202c(%rsp)
  402265:	00 00 00 00 
  402269:	ba 00 00 00 00       	mov    $0x0,%edx
  40226e:	be 01 00 00 00       	mov    $0x1,%esi
  402273:	bf 02 00 00 00       	mov    $0x2,%edi
  402278:	e8 c3 ec ff ff       	callq  400f40 <socket@plt>
  40227d:	85 c0                	test   %eax,%eax
  40227f:	0f 88 a7 01 00 00    	js     40242c <submitr+0x1fd>
  402285:	89 c3                	mov    %eax,%ebx
  402287:	4c 89 e7             	mov    %r12,%rdi
  40228a:	e8 91 eb ff ff       	callq  400e20 <gethostbyname@plt>
  40228f:	48 85 c0             	test   %rax,%rax
  402292:	0f 84 e3 01 00 00    	je     40247b <submitr+0x24c>
  402298:	48 c7 84 24 40 a0 00 	movq   $0x0,0xa040(%rsp)
  40229f:	00 00 00 00 00 
  4022a4:	48 c7 84 24 48 a0 00 	movq   $0x0,0xa048(%rsp)
  4022ab:	00 00 00 00 00 
  4022b0:	66 c7 84 24 40 a0 00 	movw   $0x2,0xa040(%rsp)
  4022b7:	00 02 00 
  4022ba:	48 8b 48 18          	mov    0x18(%rax),%rcx
  4022be:	48 63 50 14          	movslq 0x14(%rax),%rdx
  4022c2:	48 8b 31             	mov    (%rcx),%rsi
  4022c5:	48 8d bc 24 44 a0 00 	lea    0xa044(%rsp),%rdi
  4022cc:	00 
  4022cd:	e8 ee eb ff ff       	callq  400ec0 <memmove@plt>
  4022d2:	66 41 c1 cf 08       	ror    $0x8,%r15w
  4022d7:	66 44 89 bc 24 42 a0 	mov    %r15w,0xa042(%rsp)
  4022de:	00 00 
  4022e0:	ba 10 00 00 00       	mov    $0x10,%edx
  4022e5:	48 8d b4 24 40 a0 00 	lea    0xa040(%rsp),%rsi
  4022ec:	00 
  4022ed:	89 df                	mov    %ebx,%edi
  4022ef:	e8 3c ec ff ff       	callq  400f30 <connect@plt>
  4022f4:	85 c0                	test   %eax,%eax
  4022f6:	0f 88 e7 01 00 00    	js     4024e3 <submitr+0x2b4>
  4022fc:	4c 89 ef             	mov    %r13,%rdi
  4022ff:	e8 8c ea ff ff       	callq  400d90 <strlen@plt>
  402304:	49 89 c7             	mov    %rax,%r15
  402307:	4c 89 f7             	mov    %r14,%rdi
  40230a:	e8 81 ea ff ff       	callq  400d90 <strlen@plt>
  40230f:	48 89 44 24 18       	mov    %rax,0x18(%rsp)
  402314:	48 8b 7c 24 08       	mov    0x8(%rsp),%rdi
  402319:	e8 72 ea ff ff       	callq  400d90 <strlen@plt>
  40231e:	48 03 44 24 18       	add    0x18(%rsp),%rax
  402323:	48 89 44 24 18       	mov    %rax,0x18(%rsp)
  402328:	48 8b 7c 24 10       	mov    0x10(%rsp),%rdi
  40232d:	e8 5e ea ff ff       	callq  400d90 <strlen@plt>
  402332:	48 03 44 24 18       	add    0x18(%rsp),%rax
  402337:	4b 8d 14 7f          	lea    (%r15,%r15,2),%rdx
  40233b:	48 8d 84 10 80 00 00 	lea    0x80(%rax,%rdx,1),%rax
  402342:	00 
  402343:	48 3d 00 20 00 00    	cmp    $0x2000,%rax
  402349:	0f 87 ee 01 00 00    	ja     40253d <submitr+0x30e>
  40234f:	48 8d b4 24 30 40 00 	lea    0x4030(%rsp),%rsi
  402356:	00 
  402357:	b9 00 04 00 00       	mov    $0x400,%ecx
  40235c:	b8 00 00 00 00       	mov    $0x0,%eax
  402361:	48 89 f7             	mov    %rsi,%rdi
  402364:	f3 48 ab             	rep stos %rax,%es:(%rdi)
  402367:	4c 89 ef             	mov    %r13,%rdi
  40236a:	e8 92 fc ff ff       	callq  402001 <urlencode>
  40236f:	85 c0                	test   %eax,%eax
  402371:	0f 88 39 02 00 00    	js     4025b0 <submitr+0x381>
  402377:	4d 89 e1             	mov    %r12,%r9
  40237a:	4c 8d 84 24 30 40 00 	lea    0x4030(%rsp),%r8
  402381:	00 
  402382:	4c 89 f1             	mov    %r14,%rcx
  402385:	48 8b 54 24 08       	mov    0x8(%rsp),%rdx
  40238a:	be 08 35 40 00       	mov    $0x403508,%esi
  40238f:	48 8d bc 24 30 60 00 	lea    0x6030(%rsp),%rdi
  402396:	00 
  402397:	b8 00 00 00 00       	mov    $0x0,%eax
  40239c:	e8 6f eb ff ff       	callq  400f10 <sprintf@plt>
  4023a1:	48 8d bc 24 30 60 00 	lea    0x6030(%rsp),%rdi
  4023a8:	00 
  4023a9:	e8 e2 e9 ff ff       	callq  400d90 <strlen@plt>
  4023ae:	48 89 c2             	mov    %rax,%rdx
  4023b1:	48 8d b4 24 30 60 00 	lea    0x6030(%rsp),%rsi
  4023b8:	00 
  4023b9:	89 df                	mov    %ebx,%edi
  4023bb:	e8 0c fd ff ff       	callq  4020cc <rio_writen>
  4023c0:	48 85 c0             	test   %rax,%rax
  4023c3:	0f 88 72 02 00 00    	js     40263b <submitr+0x40c>
  4023c9:	89 de                	mov    %ebx,%esi
  4023cb:	48 8d bc 24 30 80 00 	lea    0x8030(%rsp),%rdi
  4023d2:	00 
  4023d3:	e8 ee fb ff ff       	callq  401fc6 <rio_readinitb>
  4023d8:	ba 00 20 00 00       	mov    $0x2000,%edx
  4023dd:	48 8d b4 24 30 60 00 	lea    0x6030(%rsp),%rsi
  4023e4:	00 
  4023e5:	48 8d bc 24 30 80 00 	lea    0x8030(%rsp),%rdi
  4023ec:	00 
  4023ed:	e8 c1 fd ff ff       	callq  4021b3 <rio_readlineb>
  4023f2:	48 85 c0             	test   %rax,%rax
  4023f5:	0f 8e af 02 00 00    	jle    4026aa <submitr+0x47b>
  4023fb:	4c 8d 44 24 20       	lea    0x20(%rsp),%r8
  402400:	48 8d 8c 24 2c 20 00 	lea    0x202c(%rsp),%rcx
  402407:	00 
  402408:	48 8d 94 24 30 20 00 	lea    0x2030(%rsp),%rdx
  40240f:	00 
  402410:	be 7f 35 40 00       	mov    $0x40357f,%esi
  402415:	48 8d bc 24 30 60 00 	lea    0x6030(%rsp),%rdi
  40241c:	00 
  40241d:	b8 00 00 00 00       	mov    $0x0,%eax
  402422:	e8 79 ea ff ff       	callq  400ea0 <__isoc99_sscanf@plt>
  402427:	e9 a7 03 00 00       	jmpq   4027d3 <submitr+0x5a4>
  40242c:	48 b8 45 72 72 6f 72 	movabs $0x43203a726f727245,%rax
  402433:	3a 20 43 
  402436:	48 ba 6c 69 65 6e 74 	movabs $0x6e7520746e65696c,%rdx
  40243d:	20 75 6e 
  402440:	48 89 45 00          	mov    %rax,0x0(%rbp)
  402444:	48 89 55 08          	mov    %rdx,0x8(%rbp)
  402448:	48 b8 61 62 6c 65 20 	movabs $0x206f7420656c6261,%rax
  40244f:	74 6f 20 
  402452:	48 ba 63 72 65 61 74 	movabs $0x7320657461657263,%rdx
  402459:	65 20 73 
  40245c:	48 89 45 10          	mov    %rax,0x10(%rbp)
  402460:	48 89 55 18          	mov    %rdx,0x18(%rbp)
  402464:	c7 45 20 6f 63 6b 65 	movl   $0x656b636f,0x20(%rbp)
  40246b:	66 c7 45 24 74 00    	movw   $0x74,0x24(%rbp)
  402471:	b8 ff ff ff ff       	mov    $0xffffffff,%eax
  402476:	e9 1f 03 00 00       	jmpq   40279a <submitr+0x56b>
  40247b:	48 b8 45 72 72 6f 72 	movabs $0x44203a726f727245,%rax
  402482:	3a 20 44 
  402485:	48 ba 4e 53 20 69 73 	movabs $0x6e7520736920534e,%rdx
  40248c:	20 75 6e 
  40248f:	48 89 45 00          	mov    %rax,0x0(%rbp)
  402493:	48 89 55 08          	mov    %rdx,0x8(%rbp)
  402497:	48 b8 61 62 6c 65 20 	movabs $0x206f7420656c6261,%rax
  40249e:	74 6f 20 
  4024a1:	48 ba 72 65 73 6f 6c 	movabs $0x2065766c6f736572,%rdx
  4024a8:	76 65 20 
  4024ab:	48 89 45 10          	mov    %rax,0x10(%rbp)
  4024af:	48 89 55 18          	mov    %rdx,0x18(%rbp)
  4024b3:	48 b8 73 65 72 76 65 	movabs $0x6120726576726573,%rax
  4024ba:	72 20 61 
  4024bd:	48 89 45 20          	mov    %rax,0x20(%rbp)
  4024c1:	c7 45 28 64 64 72 65 	movl   $0x65726464,0x28(%rbp)
  4024c8:	66 c7 45 2c 73 73    	movw   $0x7373,0x2c(%rbp)
  4024ce:	c6 45 2e 00          	movb   $0x0,0x2e(%rbp)
  4024d2:	89 df                	mov    %ebx,%edi
  4024d4:	e8 07 e9 ff ff       	callq  400de0 <close@plt>
  4024d9:	b8 ff ff ff ff       	mov    $0xffffffff,%eax
  4024de:	e9 b7 02 00 00       	jmpq   40279a <submitr+0x56b>
  4024e3:	48 b8 45 72 72 6f 72 	movabs $0x55203a726f727245,%rax
  4024ea:	3a 20 55 
  4024ed:	48 ba 6e 61 62 6c 65 	movabs $0x6f7420656c62616e,%rdx
  4024f4:	20 74 6f 
  4024f7:	48 89 45 00          	mov    %rax,0x0(%rbp)
  4024fb:	48 89 55 08          	mov    %rdx,0x8(%rbp)
  4024ff:	48 b8 20 63 6f 6e 6e 	movabs $0x7463656e6e6f6320,%rax
  402506:	65 63 74 
  402509:	48 ba 20 74 6f 20 74 	movabs $0x20656874206f7420,%rdx
  402510:	68 65 20 
  402513:	48 89 45 10          	mov    %rax,0x10(%rbp)
  402517:	48 89 55 18          	mov    %rdx,0x18(%rbp)
  40251b:	c7 45 20 73 65 72 76 	movl   $0x76726573,0x20(%rbp)
  402522:	66 c7 45 24 65 72    	movw   $0x7265,0x24(%rbp)
  402528:	c6 45 26 00          	movb   $0x0,0x26(%rbp)
  40252c:	89 df                	mov    %ebx,%edi
  40252e:	e8 ad e8 ff ff       	callq  400de0 <close@plt>
  402533:	b8 ff ff ff ff       	mov    $0xffffffff,%eax
  402538:	e9 5d 02 00 00       	jmpq   40279a <submitr+0x56b>
  40253d:	48 b8 45 72 72 6f 72 	movabs $0x52203a726f727245,%rax
  402544:	3a 20 52 
  402547:	48 ba 65 73 75 6c 74 	movabs $0x747320746c757365,%rdx
  40254e:	20 73 74 
  402551:	48 89 45 00          	mov    %rax,0x0(%rbp)
  402555:	48 89 55 08          	mov    %rdx,0x8(%rbp)
  402559:	48 b8 72 69 6e 67 20 	movabs $0x6f6f7420676e6972,%rax
  402560:	74 6f 6f 
  402563:	48 ba 20 6c 61 72 67 	movabs $0x202e656772616c20,%rdx
  40256a:	65 2e 20 
  40256d:	48 89 45 10          	mov    %rax,0x10(%rbp)
  402571:	48 89 55 18          	mov    %rdx,0x18(%rbp)
  402575:	48 b8 49 6e 63 72 65 	movabs $0x6573616572636e49,%rax
  40257c:	61 73 65 
  40257f:	48 ba 20 53 55 42 4d 	movabs $0x5254494d42555320,%rdx
  402586:	49 54 52 
  402589:	48 89 45 20          	mov    %rax,0x20(%rbp)
  40258d:	48 89 55 28          	mov    %rdx,0x28(%rbp)
  402591:	48 b8 5f 4d 41 58 42 	movabs $0x46554258414d5f,%rax
  402598:	55 46 00 
  40259b:	48 89 45 30          	mov    %rax,0x30(%rbp)
  40259f:	89 df                	mov    %ebx,%edi
  4025a1:	e8 3a e8 ff ff       	callq  400de0 <close@plt>
  4025a6:	b8 ff ff ff ff       	mov    $0xffffffff,%eax
  4025ab:	e9 ea 01 00 00       	jmpq   40279a <submitr+0x56b>
  4025b0:	48 b8 45 72 72 6f 72 	movabs $0x52203a726f727245,%rax
  4025b7:	3a 20 52 
  4025ba:	48 ba 65 73 75 6c 74 	movabs $0x747320746c757365,%rdx
  4025c1:	20 73 74 
  4025c4:	48 89 45 00          	mov    %rax,0x0(%rbp)
  4025c8:	48 89 55 08          	mov    %rdx,0x8(%rbp)
  4025cc:	48 b8 72 69 6e 67 20 	movabs $0x6e6f6320676e6972,%rax
  4025d3:	63 6f 6e 
  4025d6:	48 ba 74 61 69 6e 73 	movabs $0x6e6120736e696174,%rdx
  4025dd:	20 61 6e 
  4025e0:	48 89 45 10          	mov    %rax,0x10(%rbp)
  4025e4:	48 89 55 18          	mov    %rdx,0x18(%rbp)
  4025e8:	48 b8 20 69 6c 6c 65 	movabs $0x6c6167656c6c6920,%rax
  4025ef:	67 61 6c 
  4025f2:	48 ba 20 6f 72 20 75 	movabs $0x72706e7520726f20,%rdx
  4025f9:	6e 70 72 
  4025fc:	48 89 45 20          	mov    %rax,0x20(%rbp)
  402600:	48 89 55 28          	mov    %rdx,0x28(%rbp)
  402604:	48 b8 69 6e 74 61 62 	movabs $0x20656c6261746e69,%rax
  40260b:	6c 65 20 
  40260e:	48 ba 63 68 61 72 61 	movabs $0x6574636172616863,%rdx
  402615:	63 74 65 
  402618:	48 89 45 30          	mov    %rax,0x30(%rbp)
  40261c:	48 89 55 38          	mov    %rdx,0x38(%rbp)
  402620:	66 c7 45 40 72 2e    	movw   $0x2e72,0x40(%rbp)
  402626:	c6 45 42 00          	movb   $0x0,0x42(%rbp)
  40262a:	89 df                	mov    %ebx,%edi
  40262c:	e8 af e7 ff ff       	callq  400de0 <close@plt>
  402631:	b8 ff ff ff ff       	mov    $0xffffffff,%eax
  402636:	e9 5f 01 00 00       	jmpq   40279a <submitr+0x56b>
  40263b:	48 b8 45 72 72 6f 72 	movabs $0x43203a726f727245,%rax
  402642:	3a 20 43 
  402645:	48 ba 6c 69 65 6e 74 	movabs $0x6e7520746e65696c,%rdx
  40264c:	20 75 6e 
  40264f:	48 89 45 00          	mov    %rax,0x0(%rbp)
  402653:	48 89 55 08          	mov    %rdx,0x8(%rbp)
  402657:	48 b8 61 62 6c 65 20 	movabs $0x206f7420656c6261,%rax
  40265e:	74 6f 20 
  402661:	48 ba 77 72 69 74 65 	movabs $0x6f74206574697277,%rdx
  402668:	20 74 6f 
  40266b:	48 89 45 10          	mov    %rax,0x10(%rbp)
  40266f:	48 89 55 18          	mov    %rdx,0x18(%rbp)
  402673:	48 b8 20 74 68 65 20 	movabs $0x7365722065687420,%rax
  40267a:	72 65 73 
  40267d:	48 ba 75 6c 74 20 73 	movabs $0x7672657320746c75,%rdx
  402684:	65 72 76 
  402687:	48 89 45 20          	mov    %rax,0x20(%rbp)
  40268b:	48 89 55 28          	mov    %rdx,0x28(%rbp)
  40268f:	66 c7 45 30 65 72    	movw   $0x7265,0x30(%rbp)
  402695:	c6 45 32 00          	movb   $0x0,0x32(%rbp)
  402699:	89 df                	mov    %ebx,%edi
  40269b:	e8 40 e7 ff ff       	callq  400de0 <close@plt>
  4026a0:	b8 ff ff ff ff       	mov    $0xffffffff,%eax
  4026a5:	e9 f0 00 00 00       	jmpq   40279a <submitr+0x56b>
  4026aa:	48 b8 45 72 72 6f 72 	movabs $0x43203a726f727245,%rax
  4026b1:	3a 20 43 
  4026b4:	48 ba 6c 69 65 6e 74 	movabs $0x6e7520746e65696c,%rdx
  4026bb:	20 75 6e 
  4026be:	48 89 45 00          	mov    %rax,0x0(%rbp)
  4026c2:	48 89 55 08          	mov    %rdx,0x8(%rbp)
  4026c6:	48 b8 61 62 6c 65 20 	movabs $0x206f7420656c6261,%rax
  4026cd:	74 6f 20 
  4026d0:	48 ba 72 65 61 64 20 	movabs $0x7269662064616572,%rdx
  4026d7:	66 69 72 
  4026da:	48 89 45 10          	mov    %rax,0x10(%rbp)
  4026de:	48 89 55 18          	mov    %rdx,0x18(%rbp)
  4026e2:	48 b8 73 74 20 68 65 	movabs $0x6564616568207473,%rax
  4026e9:	61 64 65 
  4026ec:	48 ba 72 20 66 72 6f 	movabs $0x72206d6f72662072,%rdx
  4026f3:	6d 20 72 
  4026f6:	48 89 45 20          	mov    %rax,0x20(%rbp)
  4026fa:	48 89 55 28          	mov    %rdx,0x28(%rbp)
  4026fe:	48 b8 65 73 75 6c 74 	movabs $0x657320746c757365,%rax
  402705:	20 73 65 
  402708:	48 89 45 30          	mov    %rax,0x30(%rbp)
  40270c:	c7 45 38 72 76 65 72 	movl   $0x72657672,0x38(%rbp)
  402713:	c6 45 3c 00          	movb   $0x0,0x3c(%rbp)
  402717:	89 df                	mov    %ebx,%edi
  402719:	e8 c2 e6 ff ff       	callq  400de0 <close@plt>
  40271e:	b8 ff ff ff ff       	mov    $0xffffffff,%eax
  402723:	eb 75                	jmp    40279a <submitr+0x56b>
  402725:	48 b8 45 72 72 6f 72 	movabs $0x43203a726f727245,%rax
  40272c:	3a 20 43 
  40272f:	48 ba 6c 69 65 6e 74 	movabs $0x6e7520746e65696c,%rdx
  402736:	20 75 6e 
  402739:	48 89 45 00          	mov    %rax,0x0(%rbp)
  40273d:	48 89 55 08          	mov    %rdx,0x8(%rbp)
  402741:	48 b8 61 62 6c 65 20 	movabs $0x206f7420656c6261,%rax
  402748:	74 6f 20 
  40274b:	48 ba 72 65 61 64 20 	movabs $0x6165682064616572,%rdx
  402752:	68 65 61 
  402755:	48 89 45 10          	mov    %rax,0x10(%rbp)
  402759:	48 89 55 18          	mov    %rdx,0x18(%rbp)
  40275d:	48 b8 64 65 72 73 20 	movabs $0x6f72662073726564,%rax
  402764:	66 72 6f 
  402767:	48 ba 6d 20 74 68 65 	movabs $0x657220656874206d,%rdx
  40276e:	20 72 65 
  402771:	48 89 45 20          	mov    %rax,0x20(%rbp)
  402775:	48 89 55 28          	mov    %rdx,0x28(%rbp)
  402779:	48 b8 73 75 6c 74 20 	movabs $0x72657320746c7573,%rax
  402780:	73 65 72 
  402783:	48 89 45 30          	mov    %rax,0x30(%rbp)
  402787:	c7 45 38 76 65 72 00 	movl   $0x726576,0x38(%rbp)
  40278e:	89 df                	mov    %ebx,%edi
  402790:	e8 4b e6 ff ff       	callq  400de0 <close@plt>
  402795:	b8 ff ff ff ff       	mov    $0xffffffff,%eax
  40279a:	48 81 c4 58 a0 00 00 	add    $0xa058,%rsp
  4027a1:	5b                   	pop    %rbx
  4027a2:	5d                   	pop    %rbp
  4027a3:	41 5c                	pop    %r12
  4027a5:	41 5d                	pop    %r13
  4027a7:	41 5e                	pop    %r14
  4027a9:	41 5f                	pop    %r15
  4027ab:	c3                   	retq   
  4027ac:	85 c0                	test   %eax,%eax
  4027ae:	74 47                	je     4027f7 <submitr+0x5c8>
  4027b0:	ba 00 20 00 00       	mov    $0x2000,%edx
  4027b5:	48 8d b4 24 30 60 00 	lea    0x6030(%rsp),%rsi
  4027bc:	00 
  4027bd:	48 8d bc 24 30 80 00 	lea    0x8030(%rsp),%rdi
  4027c4:	00 
  4027c5:	e8 e9 f9 ff ff       	callq  4021b3 <rio_readlineb>
  4027ca:	48 85 c0             	test   %rax,%rax
  4027cd:	0f 8e 52 ff ff ff    	jle    402725 <submitr+0x4f6>
  4027d3:	0f b6 84 24 30 60 00 	movzbl 0x6030(%rsp),%eax
  4027da:	00 
  4027db:	83 e8 0d             	sub    $0xd,%eax
  4027de:	75 cc                	jne    4027ac <submitr+0x57d>
  4027e0:	0f b6 84 24 31 60 00 	movzbl 0x6031(%rsp),%eax
  4027e7:	00 
  4027e8:	83 e8 0a             	sub    $0xa,%eax
  4027eb:	75 bf                	jne    4027ac <submitr+0x57d>
  4027ed:	0f b6 84 24 32 60 00 	movzbl 0x6032(%rsp),%eax
  4027f4:	00 
  4027f5:	eb b5                	jmp    4027ac <submitr+0x57d>
  4027f7:	ba 00 20 00 00       	mov    $0x2000,%edx
  4027fc:	48 8d b4 24 30 60 00 	lea    0x6030(%rsp),%rsi
  402803:	00 
  402804:	48 8d bc 24 30 80 00 	lea    0x8030(%rsp),%rdi
  40280b:	00 
  40280c:	e8 a2 f9 ff ff       	callq  4021b3 <rio_readlineb>
  402811:	48 85 c0             	test   %rax,%rax
  402814:	7e 5a                	jle    402870 <submitr+0x641>
  402816:	8b 94 24 2c 20 00 00 	mov    0x202c(%rsp),%edx
  40281d:	81 fa c8 00 00 00    	cmp    $0xc8,%edx
  402823:	0f 85 cb 00 00 00    	jne    4028f4 <submitr+0x6c5>
  402829:	48 8d b4 24 30 60 00 	lea    0x6030(%rsp),%rsi
  402830:	00 
  402831:	48 89 ef             	mov    %rbp,%rdi
  402834:	e8 27 e5 ff ff       	callq  400d60 <strcpy@plt>
  402839:	89 df                	mov    %ebx,%edi
  40283b:	e8 a0 e5 ff ff       	callq  400de0 <close@plt>
  402840:	0f b6 55 00          	movzbl 0x0(%rbp),%edx
  402844:	83 ea 4f             	sub    $0x4f,%edx
  402847:	0f 85 cf 00 00 00    	jne    40291c <submitr+0x6ed>
  40284d:	0f b6 45 01          	movzbl 0x1(%rbp),%eax
  402851:	83 e8 4b             	sub    $0x4b,%eax
  402854:	0f 85 c4 00 00 00    	jne    40291e <submitr+0x6ef>
  40285a:	0f b6 45 02          	movzbl 0x2(%rbp),%eax
  40285e:	83 e8 0a             	sub    $0xa,%eax
  402861:	0f 85 b7 00 00 00    	jne    40291e <submitr+0x6ef>
  402867:	0f b6 45 03          	movzbl 0x3(%rbp),%eax
  40286b:	e9 ae 00 00 00       	jmpq   40291e <submitr+0x6ef>
  402870:	48 b8 45 72 72 6f 72 	movabs $0x43203a726f727245,%rax
  402877:	3a 20 43 
  40287a:	48 ba 6c 69 65 6e 74 	movabs $0x6e7520746e65696c,%rdx
  402881:	20 75 6e 
  402884:	48 89 45 00          	mov    %rax,0x0(%rbp)
  402888:	48 89 55 08          	mov    %rdx,0x8(%rbp)
  40288c:	48 b8 61 62 6c 65 20 	movabs $0x206f7420656c6261,%rax
  402893:	74 6f 20 
  402896:	48 ba 72 65 61 64 20 	movabs $0x6174732064616572,%rdx
  40289d:	73 74 61 
  4028a0:	48 89 45 10          	mov    %rax,0x10(%rbp)
  4028a4:	48 89 55 18          	mov    %rdx,0x18(%rbp)
  4028a8:	48 b8 74 75 73 20 6d 	movabs $0x7373656d20737574,%rax
  4028af:	65 73 73 
  4028b2:	48 ba 61 67 65 20 66 	movabs $0x6d6f726620656761,%rdx
  4028b9:	72 6f 6d 
  4028bc:	48 89 45 20          	mov    %rax,0x20(%rbp)
  4028c0:	48 89 55 28          	mov    %rdx,0x28(%rbp)
  4028c4:	48 b8 20 72 65 73 75 	movabs $0x20746c7573657220,%rax
  4028cb:	6c 74 20 
  4028ce:	48 89 45 30          	mov    %rax,0x30(%rbp)
  4028d2:	c7 45 38 73 65 72 76 	movl   $0x76726573,0x38(%rbp)
  4028d9:	66 c7 45 3c 65 72    	movw   $0x7265,0x3c(%rbp)
  4028df:	c6 45 3e 00          	movb   $0x0,0x3e(%rbp)
  4028e3:	89 df                	mov    %ebx,%edi
  4028e5:	e8 f6 e4 ff ff       	callq  400de0 <close@plt>
  4028ea:	b8 ff ff ff ff       	mov    $0xffffffff,%eax
  4028ef:	e9 a6 fe ff ff       	jmpq   40279a <submitr+0x56b>
  4028f4:	48 8d 4c 24 20       	lea    0x20(%rsp),%rcx
  4028f9:	be 48 35 40 00       	mov    $0x403548,%esi
  4028fe:	48 89 ef             	mov    %rbp,%rdi
  402901:	b8 00 00 00 00       	mov    $0x0,%eax
  402906:	e8 05 e6 ff ff       	callq  400f10 <sprintf@plt>
  40290b:	89 df                	mov    %ebx,%edi
  40290d:	e8 ce e4 ff ff       	callq  400de0 <close@plt>
  402912:	b8 ff ff ff ff       	mov    $0xffffffff,%eax
  402917:	e9 7e fe ff ff       	jmpq   40279a <submitr+0x56b>
  40291c:	89 d0                	mov    %edx,%eax
  40291e:	85 c0                	test   %eax,%eax
  402920:	0f 84 74 fe ff ff    	je     40279a <submitr+0x56b>
  402926:	bf 90 35 40 00       	mov    $0x403590,%edi
  40292b:	b9 05 00 00 00       	mov    $0x5,%ecx
  402930:	48 89 ee             	mov    %rbp,%rsi
  402933:	f3 a6                	repz cmpsb %es:(%rdi),%ds:(%rsi)
  402935:	0f 97 c0             	seta   %al
  402938:	1c 00                	sbb    $0x0,%al
  40293a:	0f be c0             	movsbl %al,%eax
  40293d:	85 c0                	test   %eax,%eax
  40293f:	0f 84 55 fe ff ff    	je     40279a <submitr+0x56b>
  402945:	85 d2                	test   %edx,%edx
  402947:	75 0d                	jne    402956 <submitr+0x727>
  402949:	0f b6 55 01          	movzbl 0x1(%rbp),%edx
  40294d:	83 ea 4b             	sub    $0x4b,%edx
  402950:	75 04                	jne    402956 <submitr+0x727>
  402952:	0f b6 55 02          	movzbl 0x2(%rbp),%edx
  402956:	85 d2                	test   %edx,%edx
  402958:	75 07                	jne    402961 <submitr+0x732>
  40295a:	89 d0                	mov    %edx,%eax
  40295c:	e9 39 fe ff ff       	jmpq   40279a <submitr+0x56b>
  402961:	b8 ff ff ff ff       	mov    $0xffffffff,%eax
  402966:	e9 2f fe ff ff       	jmpq   40279a <submitr+0x56b>

000000000040296b <init_timeout>:
  40296b:	85 ff                	test   %edi,%edi
  40296d:	74 24                	je     402993 <init_timeout+0x28>
  40296f:	53                   	push   %rbx
  402970:	89 fb                	mov    %edi,%ebx
  402972:	78 18                	js     40298c <init_timeout+0x21>
  402974:	be d8 1f 40 00       	mov    $0x401fd8,%esi
  402979:	bf 0e 00 00 00       	mov    $0xe,%edi
  40297e:	e8 8d e4 ff ff       	callq  400e10 <signal@plt>
  402983:	89 df                	mov    %ebx,%edi
  402985:	e8 46 e4 ff ff       	callq  400dd0 <alarm@plt>
  40298a:	5b                   	pop    %rbx
  40298b:	c3                   	retq   
  40298c:	bb 00 00 00 00       	mov    $0x0,%ebx
  402991:	eb e1                	jmp    402974 <init_timeout+0x9>
  402993:	c3                   	retq   

0000000000402994 <init_driver>:
  402994:	55                   	push   %rbp
  402995:	53                   	push   %rbx
  402996:	48 83 ec 18          	sub    $0x18,%rsp
  40299a:	48 89 fd             	mov    %rdi,%rbp
  40299d:	be 01 00 00 00       	mov    $0x1,%esi
  4029a2:	bf 0d 00 00 00       	mov    $0xd,%edi
  4029a7:	e8 64 e4 ff ff       	callq  400e10 <signal@plt>
  4029ac:	be 01 00 00 00       	mov    $0x1,%esi
  4029b1:	bf 1d 00 00 00       	mov    $0x1d,%edi
  4029b6:	e8 55 e4 ff ff       	callq  400e10 <signal@plt>
  4029bb:	be 01 00 00 00       	mov    $0x1,%esi
  4029c0:	bf 1d 00 00 00       	mov    $0x1d,%edi
  4029c5:	e8 46 e4 ff ff       	callq  400e10 <signal@plt>
  4029ca:	ba 00 00 00 00       	mov    $0x0,%edx
  4029cf:	be 01 00 00 00       	mov    $0x1,%esi
  4029d4:	bf 02 00 00 00       	mov    $0x2,%edi
  4029d9:	e8 62 e5 ff ff       	callq  400f40 <socket@plt>
  4029de:	85 c0                	test   %eax,%eax
  4029e0:	78 7c                	js     402a5e <init_driver+0xca>
  4029e2:	89 c3                	mov    %eax,%ebx
  4029e4:	bf 6f 30 40 00       	mov    $0x40306f,%edi
  4029e9:	e8 32 e4 ff ff       	callq  400e20 <gethostbyname@plt>
  4029ee:	48 85 c0             	test   %rax,%rax
  4029f1:	0f 84 b3 00 00 00    	je     402aaa <init_driver+0x116>
  4029f7:	48 c7 04 24 00 00 00 	movq   $0x0,(%rsp)
  4029fe:	00 
  4029ff:	48 c7 44 24 08 00 00 	movq   $0x0,0x8(%rsp)
  402a06:	00 00 
  402a08:	66 c7 04 24 02 00    	movw   $0x2,(%rsp)
  402a0e:	48 8b 48 18          	mov    0x18(%rax),%rcx
  402a12:	48 63 50 14          	movslq 0x14(%rax),%rdx
  402a16:	48 8b 31             	mov    (%rcx),%rsi
  402a19:	48 8d 7c 24 04       	lea    0x4(%rsp),%rdi
  402a1e:	e8 9d e4 ff ff       	callq  400ec0 <memmove@plt>
  402a23:	66 c7 44 24 02 47 26 	movw   $0x2647,0x2(%rsp)
  402a2a:	ba 10 00 00 00       	mov    $0x10,%edx
  402a2f:	48 89 e6             	mov    %rsp,%rsi
  402a32:	89 df                	mov    %ebx,%edi
  402a34:	e8 f7 e4 ff ff       	callq  400f30 <connect@plt>
  402a39:	85 c0                	test   %eax,%eax
  402a3b:	0f 88 d1 00 00 00    	js     402b12 <init_driver+0x17e>
  402a41:	89 df                	mov    %ebx,%edi
  402a43:	e8 98 e3 ff ff       	callq  400de0 <close@plt>
  402a48:	66 c7 45 00 4f 4b    	movw   $0x4b4f,0x0(%rbp)
  402a4e:	c6 45 02 00          	movb   $0x0,0x2(%rbp)
  402a52:	b8 00 00 00 00       	mov    $0x0,%eax
  402a57:	48 83 c4 18          	add    $0x18,%rsp
  402a5b:	5b                   	pop    %rbx
  402a5c:	5d                   	pop    %rbp
  402a5d:	c3                   	retq   
  402a5e:	48 b8 45 72 72 6f 72 	movabs $0x43203a726f727245,%rax
  402a65:	3a 20 43 
  402a68:	48 ba 6c 69 65 6e 74 	movabs $0x6e7520746e65696c,%rdx
  402a6f:	20 75 6e 
  402a72:	48 89 45 00          	mov    %rax,0x0(%rbp)
  402a76:	48 89 55 08          	mov    %rdx,0x8(%rbp)
  402a7a:	48 b8 61 62 6c 65 20 	movabs $0x206f7420656c6261,%rax
  402a81:	74 6f 20 
  402a84:	48 ba 63 72 65 61 74 	movabs $0x7320657461657263,%rdx
  402a8b:	65 20 73 
  402a8e:	48 89 45 10          	mov    %rax,0x10(%rbp)
  402a92:	48 89 55 18          	mov    %rdx,0x18(%rbp)
  402a96:	c7 45 20 6f 63 6b 65 	movl   $0x656b636f,0x20(%rbp)
  402a9d:	66 c7 45 24 74 00    	movw   $0x74,0x24(%rbp)
  402aa3:	b8 ff ff ff ff       	mov    $0xffffffff,%eax
  402aa8:	eb ad                	jmp    402a57 <init_driver+0xc3>
  402aaa:	48 b8 45 72 72 6f 72 	movabs $0x44203a726f727245,%rax
  402ab1:	3a 20 44 
  402ab4:	48 ba 4e 53 20 69 73 	movabs $0x6e7520736920534e,%rdx
  402abb:	20 75 6e 
  402abe:	48 89 45 00          	mov    %rax,0x0(%rbp)
  402ac2:	48 89 55 08          	mov    %rdx,0x8(%rbp)
  402ac6:	48 b8 61 62 6c 65 20 	movabs $0x206f7420656c6261,%rax
  402acd:	74 6f 20 
  402ad0:	48 ba 72 65 73 6f 6c 	movabs $0x2065766c6f736572,%rdx
  402ad7:	76 65 20 
  402ada:	48 89 45 10          	mov    %rax,0x10(%rbp)
  402ade:	48 89 55 18          	mov    %rdx,0x18(%rbp)
  402ae2:	48 b8 73 65 72 76 65 	movabs $0x6120726576726573,%rax
  402ae9:	72 20 61 
  402aec:	48 89 45 20          	mov    %rax,0x20(%rbp)
  402af0:	c7 45 28 64 64 72 65 	movl   $0x65726464,0x28(%rbp)
  402af7:	66 c7 45 2c 73 73    	movw   $0x7373,0x2c(%rbp)
  402afd:	c6 45 2e 00          	movb   $0x0,0x2e(%rbp)
  402b01:	89 df                	mov    %ebx,%edi
  402b03:	e8 d8 e2 ff ff       	callq  400de0 <close@plt>
  402b08:	b8 ff ff ff ff       	mov    $0xffffffff,%eax
  402b0d:	e9 45 ff ff ff       	jmpq   402a57 <init_driver+0xc3>
  402b12:	48 b8 6c 6e 78 73 72 	movabs $0x3630767273786e6c,%rax
  402b19:	76 30 36 
  402b1c:	48 ba 2e 73 65 61 73 	movabs $0x63752e736165732e,%rdx
  402b23:	2e 75 63 
  402b26:	48 89 45 00          	mov    %rax,0x0(%rbp)
  402b2a:	48 89 55 08          	mov    %rdx,0x8(%rbp)
  402b2e:	c7 45 10 6c 61 2e 65 	movl   $0x652e616c,0x10(%rbp)
  402b35:	66 c7 45 14 64 75    	movw   $0x7564,0x14(%rbp)
  402b3b:	c6 45 16 00          	movb   $0x0,0x16(%rbp)
  402b3f:	48 b8 45 72 72 6f 72 	movabs $0x55203a726f727245,%rax
  402b46:	3a 20 55 
  402b49:	48 ba 6e 61 62 6c 65 	movabs $0x6f7420656c62616e,%rdx
  402b50:	20 74 6f 
  402b53:	48 89 45 00          	mov    %rax,0x0(%rbp)
  402b57:	48 89 55 08          	mov    %rdx,0x8(%rbp)
  402b5b:	48 b8 20 63 6f 6e 6e 	movabs $0x7463656e6e6f6320,%rax
  402b62:	65 63 74 
  402b65:	48 ba 20 74 6f 20 73 	movabs $0x76726573206f7420,%rdx
  402b6c:	65 72 76 
  402b6f:	48 89 45 10          	mov    %rax,0x10(%rbp)
  402b73:	48 89 55 18          	mov    %rdx,0x18(%rbp)
  402b77:	66 c7 45 20 65 72    	movw   $0x7265,0x20(%rbp)
  402b7d:	c6 45 22 00          	movb   $0x0,0x22(%rbp)
  402b81:	89 df                	mov    %ebx,%edi
  402b83:	e8 58 e2 ff ff       	callq  400de0 <close@plt>
  402b88:	b8 ff ff ff ff       	mov    $0xffffffff,%eax
  402b8d:	e9 c5 fe ff ff       	jmpq   402a57 <init_driver+0xc3>

0000000000402b92 <driver_post>:
  402b92:	53                   	push   %rbx
  402b93:	4c 89 cb             	mov    %r9,%rbx
  402b96:	45 85 c0             	test   %r8d,%r8d
  402b99:	75 18                	jne    402bb3 <driver_post+0x21>
  402b9b:	48 85 ff             	test   %rdi,%rdi
  402b9e:	74 05                	je     402ba5 <driver_post+0x13>
  402ba0:	80 3f 00             	cmpb   $0x0,(%rdi)
  402ba3:	75 30                	jne    402bd5 <driver_post+0x43>
  402ba5:	66 c7 03 4f 4b       	movw   $0x4b4f,(%rbx)
  402baa:	c6 43 02 00          	movb   $0x0,0x2(%rbx)
  402bae:	44 89 c0             	mov    %r8d,%eax
  402bb1:	5b                   	pop    %rbx
  402bb2:	c3                   	retq   
  402bb3:	48 89 ce             	mov    %rcx,%rsi
  402bb6:	bf 95 35 40 00       	mov    $0x403595,%edi
  402bbb:	b8 00 00 00 00       	mov    $0x0,%eax
  402bc0:	e8 eb e1 ff ff       	callq  400db0 <printf@plt>
  402bc5:	66 c7 03 4f 4b       	movw   $0x4b4f,(%rbx)
  402bca:	c6 43 02 00          	movb   $0x0,0x2(%rbx)
  402bce:	b8 00 00 00 00       	mov    $0x0,%eax
  402bd3:	eb dc                	jmp    402bb1 <driver_post+0x1f>
  402bd5:	48 83 ec 08          	sub    $0x8,%rsp
  402bd9:	41 51                	push   %r9
  402bdb:	49 89 c9             	mov    %rcx,%r9
  402bde:	49 89 d0             	mov    %rdx,%r8
  402be1:	48 89 f9             	mov    %rdi,%rcx
  402be4:	48 89 f2             	mov    %rsi,%rdx
  402be7:	be 26 47 00 00       	mov    $0x4726,%esi
  402bec:	bf 6f 30 40 00       	mov    $0x40306f,%edi
  402bf1:	e8 39 f6 ff ff       	callq  40222f <submitr>
  402bf6:	48 83 c4 10          	add    $0x10,%rsp
  402bfa:	eb b5                	jmp    402bb1 <driver_post+0x1f>

0000000000402bfc <check>:
  402bfc:	89 f8                	mov    %edi,%eax
  402bfe:	c1 e8 1c             	shr    $0x1c,%eax
  402c01:	74 1d                	je     402c20 <check+0x24>
  402c03:	b9 00 00 00 00       	mov    $0x0,%ecx
  402c08:	83 f9 1f             	cmp    $0x1f,%ecx
  402c0b:	7f 0d                	jg     402c1a <check+0x1e>
  402c0d:	89 f8                	mov    %edi,%eax
  402c0f:	d3 e8                	shr    %cl,%eax
  402c11:	3c 0a                	cmp    $0xa,%al
  402c13:	74 11                	je     402c26 <check+0x2a>
  402c15:	83 c1 08             	add    $0x8,%ecx
  402c18:	eb ee                	jmp    402c08 <check+0xc>
  402c1a:	b8 01 00 00 00       	mov    $0x1,%eax
  402c1f:	c3                   	retq   
  402c20:	b8 00 00 00 00       	mov    $0x0,%eax
  402c25:	c3                   	retq   
  402c26:	b8 00 00 00 00       	mov    $0x0,%eax
  402c2b:	c3                   	retq   

0000000000402c2c <gencookie>:
  402c2c:	53                   	push   %rbx
  402c2d:	83 c7 01             	add    $0x1,%edi
  402c30:	e8 0b e1 ff ff       	callq  400d40 <srandom@plt>
  402c35:	e8 46 e2 ff ff       	callq  400e80 <random@plt>
  402c3a:	48 89 c7             	mov    %rax,%rdi
  402c3d:	89 c3                	mov    %eax,%ebx
  402c3f:	e8 b8 ff ff ff       	callq  402bfc <check>
  402c44:	85 c0                	test   %eax,%eax
  402c46:	74 ed                	je     402c35 <gencookie+0x9>
  402c48:	89 d8                	mov    %ebx,%eax
  402c4a:	5b                   	pop    %rbx
  402c4b:	c3                   	retq   
  402c4c:	0f 1f 40 00          	nopl   0x0(%rax)

0000000000402c50 <__libc_csu_init>:
  402c50:	41 57                	push   %r15
  402c52:	41 89 ff             	mov    %edi,%r15d
  402c55:	41 56                	push   %r14
  402c57:	49 89 f6             	mov    %rsi,%r14
  402c5a:	41 55                	push   %r13
  402c5c:	49 89 d5             	mov    %rdx,%r13
  402c5f:	41 54                	push   %r12
  402c61:	4c 8d 25 b0 11 20 00 	lea    0x2011b0(%rip),%r12        # 603e18 <__frame_dummy_init_array_entry>
  402c68:	55                   	push   %rbp
  402c69:	48 8d 2d b0 11 20 00 	lea    0x2011b0(%rip),%rbp        # 603e20 <__init_array_end>
  402c70:	53                   	push   %rbx
  402c71:	4c 29 e5             	sub    %r12,%rbp
  402c74:	31 db                	xor    %ebx,%ebx
  402c76:	48 c1 fd 03          	sar    $0x3,%rbp
  402c7a:	48 83 ec 08          	sub    $0x8,%rsp
  402c7e:	e8 65 e0 ff ff       	callq  400ce8 <_init>
  402c83:	48 85 ed             	test   %rbp,%rbp
  402c86:	74 1e                	je     402ca6 <__libc_csu_init+0x56>
  402c88:	0f 1f 84 00 00 00 00 	nopl   0x0(%rax,%rax,1)
  402c8f:	00 
  402c90:	4c 89 ea             	mov    %r13,%rdx
  402c93:	4c 89 f6             	mov    %r14,%rsi
  402c96:	44 89 ff             	mov    %r15d,%edi
  402c99:	41 ff 14 dc          	callq  *(%r12,%rbx,8)
  402c9d:	48 83 c3 01          	add    $0x1,%rbx
  402ca1:	48 39 eb             	cmp    %rbp,%rbx
  402ca4:	75 ea                	jne    402c90 <__libc_csu_init+0x40>
  402ca6:	48 83 c4 08          	add    $0x8,%rsp
  402caa:	5b                   	pop    %rbx
  402cab:	5d                   	pop    %rbp
  402cac:	41 5c                	pop    %r12
  402cae:	41 5d                	pop    %r13
  402cb0:	41 5e                	pop    %r14
  402cb2:	41 5f                	pop    %r15
  402cb4:	c3                   	retq   
  402cb5:	90                   	nop
  402cb6:	66 2e 0f 1f 84 00 00 	nopw   %cs:0x0(%rax,%rax,1)
  402cbd:	00 00 00 

0000000000402cc0 <__libc_csu_fini>:
  402cc0:	f3 c3                	repz retq 

Disassembly of section .fini:

0000000000402cc4 <_fini>:
  402cc4:	48 83 ec 08          	sub    $0x8,%rsp
  402cc8:	48 83 c4 08          	add    $0x8,%rsp
  402ccc:	c3                   	retq   
