
rtarget:     file format elf64-x86-64


Disassembly of section .init:

0000000000400ce8 <_init>:
  400ce8:	48 83 ec 08          	sub    $0x8,%rsp
  400cec:	48 8b 05 05 43 20 00 	mov    0x204305(%rip),%rax        # 604ff8 <__gmon_start__>
  400cf3:	48 85 c0             	test   %rax,%rax
  400cf6:	74 05                	je     400cfd <_init+0x15>
  400cf8:	e8 43 01 00 00       	callq  400e40 <__gmon_start__@plt>
  400cfd:	48 83 c4 08          	add    $0x8,%rsp
  400d01:	c3                   	retq   

Disassembly of section .plt:

0000000000400d10 <.plt>:
  400d10:	ff 35 f2 42 20 00    	pushq  0x2042f2(%rip)        # 605008 <_GLOBAL_OFFSET_TABLE_+0x8>
  400d16:	ff 25 f4 42 20 00    	jmpq   *0x2042f4(%rip)        # 605010 <_GLOBAL_OFFSET_TABLE_+0x10>
  400d1c:	0f 1f 40 00          	nopl   0x0(%rax)

0000000000400d20 <strcasecmp@plt>:
  400d20:	ff 25 f2 42 20 00    	jmpq   *0x2042f2(%rip)        # 605018 <strcasecmp@GLIBC_2.2.5>
  400d26:	68 00 00 00 00       	pushq  $0x0
  400d2b:	e9 e0 ff ff ff       	jmpq   400d10 <.plt>

0000000000400d30 <__errno_location@plt>:
  400d30:	ff 25 ea 42 20 00    	jmpq   *0x2042ea(%rip)        # 605020 <__errno_location@GLIBC_2.2.5>
  400d36:	68 01 00 00 00       	pushq  $0x1
  400d3b:	e9 d0 ff ff ff       	jmpq   400d10 <.plt>

0000000000400d40 <srandom@plt>:
  400d40:	ff 25 e2 42 20 00    	jmpq   *0x2042e2(%rip)        # 605028 <srandom@GLIBC_2.2.5>
  400d46:	68 02 00 00 00       	pushq  $0x2
  400d4b:	e9 c0 ff ff ff       	jmpq   400d10 <.plt>

0000000000400d50 <strncmp@plt>:
  400d50:	ff 25 da 42 20 00    	jmpq   *0x2042da(%rip)        # 605030 <strncmp@GLIBC_2.2.5>
  400d56:	68 03 00 00 00       	pushq  $0x3
  400d5b:	e9 b0 ff ff ff       	jmpq   400d10 <.plt>

0000000000400d60 <strcpy@plt>:
  400d60:	ff 25 d2 42 20 00    	jmpq   *0x2042d2(%rip)        # 605038 <strcpy@GLIBC_2.2.5>
  400d66:	68 04 00 00 00       	pushq  $0x4
  400d6b:	e9 a0 ff ff ff       	jmpq   400d10 <.plt>

0000000000400d70 <puts@plt>:
  400d70:	ff 25 ca 42 20 00    	jmpq   *0x2042ca(%rip)        # 605040 <puts@GLIBC_2.2.5>
  400d76:	68 05 00 00 00       	pushq  $0x5
  400d7b:	e9 90 ff ff ff       	jmpq   400d10 <.plt>

0000000000400d80 <write@plt>:
  400d80:	ff 25 c2 42 20 00    	jmpq   *0x2042c2(%rip)        # 605048 <write@GLIBC_2.2.5>
  400d86:	68 06 00 00 00       	pushq  $0x6
  400d8b:	e9 80 ff ff ff       	jmpq   400d10 <.plt>

0000000000400d90 <strlen@plt>:
  400d90:	ff 25 ba 42 20 00    	jmpq   *0x2042ba(%rip)        # 605050 <strlen@GLIBC_2.2.5>
  400d96:	68 07 00 00 00       	pushq  $0x7
  400d9b:	e9 70 ff ff ff       	jmpq   400d10 <.plt>

0000000000400da0 <mmap@plt>:
  400da0:	ff 25 b2 42 20 00    	jmpq   *0x2042b2(%rip)        # 605058 <mmap@GLIBC_2.2.5>
  400da6:	68 08 00 00 00       	pushq  $0x8
  400dab:	e9 60 ff ff ff       	jmpq   400d10 <.plt>

0000000000400db0 <printf@plt>:
  400db0:	ff 25 aa 42 20 00    	jmpq   *0x2042aa(%rip)        # 605060 <printf@GLIBC_2.2.5>
  400db6:	68 09 00 00 00       	pushq  $0x9
  400dbb:	e9 50 ff ff ff       	jmpq   400d10 <.plt>

0000000000400dc0 <memset@plt>:
  400dc0:	ff 25 a2 42 20 00    	jmpq   *0x2042a2(%rip)        # 605068 <memset@GLIBC_2.2.5>
  400dc6:	68 0a 00 00 00       	pushq  $0xa
  400dcb:	e9 40 ff ff ff       	jmpq   400d10 <.plt>

0000000000400dd0 <alarm@plt>:
  400dd0:	ff 25 9a 42 20 00    	jmpq   *0x20429a(%rip)        # 605070 <alarm@GLIBC_2.2.5>
  400dd6:	68 0b 00 00 00       	pushq  $0xb
  400ddb:	e9 30 ff ff ff       	jmpq   400d10 <.plt>

0000000000400de0 <close@plt>:
  400de0:	ff 25 92 42 20 00    	jmpq   *0x204292(%rip)        # 605078 <close@GLIBC_2.2.5>
  400de6:	68 0c 00 00 00       	pushq  $0xc
  400deb:	e9 20 ff ff ff       	jmpq   400d10 <.plt>

0000000000400df0 <read@plt>:
  400df0:	ff 25 8a 42 20 00    	jmpq   *0x20428a(%rip)        # 605080 <read@GLIBC_2.2.5>
  400df6:	68 0d 00 00 00       	pushq  $0xd
  400dfb:	e9 10 ff ff ff       	jmpq   400d10 <.plt>

0000000000400e00 <__libc_start_main@plt>:
  400e00:	ff 25 82 42 20 00    	jmpq   *0x204282(%rip)        # 605088 <__libc_start_main@GLIBC_2.2.5>
  400e06:	68 0e 00 00 00       	pushq  $0xe
  400e0b:	e9 00 ff ff ff       	jmpq   400d10 <.plt>

0000000000400e10 <signal@plt>:
  400e10:	ff 25 7a 42 20 00    	jmpq   *0x20427a(%rip)        # 605090 <signal@GLIBC_2.2.5>
  400e16:	68 0f 00 00 00       	pushq  $0xf
  400e1b:	e9 f0 fe ff ff       	jmpq   400d10 <.plt>

0000000000400e20 <gethostbyname@plt>:
  400e20:	ff 25 72 42 20 00    	jmpq   *0x204272(%rip)        # 605098 <gethostbyname@GLIBC_2.2.5>
  400e26:	68 10 00 00 00       	pushq  $0x10
  400e2b:	e9 e0 fe ff ff       	jmpq   400d10 <.plt>

0000000000400e30 <fprintf@plt>:
  400e30:	ff 25 6a 42 20 00    	jmpq   *0x20426a(%rip)        # 6050a0 <fprintf@GLIBC_2.2.5>
  400e36:	68 11 00 00 00       	pushq  $0x11
  400e3b:	e9 d0 fe ff ff       	jmpq   400d10 <.plt>

0000000000400e40 <__gmon_start__@plt>:
  400e40:	ff 25 62 42 20 00    	jmpq   *0x204262(%rip)        # 6050a8 <__gmon_start__>
  400e46:	68 12 00 00 00       	pushq  $0x12
  400e4b:	e9 c0 fe ff ff       	jmpq   400d10 <.plt>

0000000000400e50 <strtol@plt>:
  400e50:	ff 25 5a 42 20 00    	jmpq   *0x20425a(%rip)        # 6050b0 <strtol@GLIBC_2.2.5>
  400e56:	68 13 00 00 00       	pushq  $0x13
  400e5b:	e9 b0 fe ff ff       	jmpq   400d10 <.plt>

0000000000400e60 <memcpy@plt>:
  400e60:	ff 25 52 42 20 00    	jmpq   *0x204252(%rip)        # 6050b8 <memcpy@GLIBC_2.14>
  400e66:	68 14 00 00 00       	pushq  $0x14
  400e6b:	e9 a0 fe ff ff       	jmpq   400d10 <.plt>

0000000000400e70 <time@plt>:
  400e70:	ff 25 4a 42 20 00    	jmpq   *0x20424a(%rip)        # 6050c0 <time@GLIBC_2.2.5>
  400e76:	68 15 00 00 00       	pushq  $0x15
  400e7b:	e9 90 fe ff ff       	jmpq   400d10 <.plt>

0000000000400e80 <random@plt>:
  400e80:	ff 25 42 42 20 00    	jmpq   *0x204242(%rip)        # 6050c8 <random@GLIBC_2.2.5>
  400e86:	68 16 00 00 00       	pushq  $0x16
  400e8b:	e9 80 fe ff ff       	jmpq   400d10 <.plt>

0000000000400e90 <_IO_getc@plt>:
  400e90:	ff 25 3a 42 20 00    	jmpq   *0x20423a(%rip)        # 6050d0 <_IO_getc@GLIBC_2.2.5>
  400e96:	68 17 00 00 00       	pushq  $0x17
  400e9b:	e9 70 fe ff ff       	jmpq   400d10 <.plt>

0000000000400ea0 <__isoc99_sscanf@plt>:
  400ea0:	ff 25 32 42 20 00    	jmpq   *0x204232(%rip)        # 6050d8 <__isoc99_sscanf@GLIBC_2.7>
  400ea6:	68 18 00 00 00       	pushq  $0x18
  400eab:	e9 60 fe ff ff       	jmpq   400d10 <.plt>

0000000000400eb0 <munmap@plt>:
  400eb0:	ff 25 2a 42 20 00    	jmpq   *0x20422a(%rip)        # 6050e0 <munmap@GLIBC_2.2.5>
  400eb6:	68 19 00 00 00       	pushq  $0x19
  400ebb:	e9 50 fe ff ff       	jmpq   400d10 <.plt>

0000000000400ec0 <memmove@plt>:
  400ec0:	ff 25 22 42 20 00    	jmpq   *0x204222(%rip)        # 6050e8 <memmove@GLIBC_2.2.5>
  400ec6:	68 1a 00 00 00       	pushq  $0x1a
  400ecb:	e9 40 fe ff ff       	jmpq   400d10 <.plt>

0000000000400ed0 <fopen@plt>:
  400ed0:	ff 25 1a 42 20 00    	jmpq   *0x20421a(%rip)        # 6050f0 <fopen@GLIBC_2.2.5>
  400ed6:	68 1b 00 00 00       	pushq  $0x1b
  400edb:	e9 30 fe ff ff       	jmpq   400d10 <.plt>

0000000000400ee0 <getopt@plt>:
  400ee0:	ff 25 12 42 20 00    	jmpq   *0x204212(%rip)        # 6050f8 <getopt@GLIBC_2.2.5>
  400ee6:	68 1c 00 00 00       	pushq  $0x1c
  400eeb:	e9 20 fe ff ff       	jmpq   400d10 <.plt>

0000000000400ef0 <strtoul@plt>:
  400ef0:	ff 25 0a 42 20 00    	jmpq   *0x20420a(%rip)        # 605100 <strtoul@GLIBC_2.2.5>
  400ef6:	68 1d 00 00 00       	pushq  $0x1d
  400efb:	e9 10 fe ff ff       	jmpq   400d10 <.plt>

0000000000400f00 <gethostname@plt>:
  400f00:	ff 25 02 42 20 00    	jmpq   *0x204202(%rip)        # 605108 <gethostname@GLIBC_2.2.5>
  400f06:	68 1e 00 00 00       	pushq  $0x1e
  400f0b:	e9 00 fe ff ff       	jmpq   400d10 <.plt>

0000000000400f10 <sprintf@plt>:
  400f10:	ff 25 fa 41 20 00    	jmpq   *0x2041fa(%rip)        # 605110 <sprintf@GLIBC_2.2.5>
  400f16:	68 1f 00 00 00       	pushq  $0x1f
  400f1b:	e9 f0 fd ff ff       	jmpq   400d10 <.plt>

0000000000400f20 <exit@plt>:
  400f20:	ff 25 f2 41 20 00    	jmpq   *0x2041f2(%rip)        # 605118 <exit@GLIBC_2.2.5>
  400f26:	68 20 00 00 00       	pushq  $0x20
  400f2b:	e9 e0 fd ff ff       	jmpq   400d10 <.plt>

0000000000400f30 <connect@plt>:
  400f30:	ff 25 ea 41 20 00    	jmpq   *0x2041ea(%rip)        # 605120 <connect@GLIBC_2.2.5>
  400f36:	68 21 00 00 00       	pushq  $0x21
  400f3b:	e9 d0 fd ff ff       	jmpq   400d10 <.plt>

0000000000400f40 <socket@plt>:
  400f40:	ff 25 e2 41 20 00    	jmpq   *0x2041e2(%rip)        # 605128 <socket@GLIBC_2.2.5>
  400f46:	68 22 00 00 00       	pushq  $0x22
  400f4b:	e9 c0 fd ff ff       	jmpq   400d10 <.plt>

Disassembly of section .text:

0000000000400f50 <_start>:
  400f50:	31 ed                	xor    %ebp,%ebp
  400f52:	49 89 d1             	mov    %rdx,%r9
  400f55:	5e                   	pop    %rsi
  400f56:	48 89 e2             	mov    %rsp,%rdx
  400f59:	48 83 e4 f0          	and    $0xfffffffffffffff0,%rsp
  400f5d:	50                   	push   %rax
  400f5e:	54                   	push   %rsp
  400f5f:	49 c7 c0 e0 2d 40 00 	mov    $0x402de0,%r8
  400f66:	48 c7 c1 70 2d 40 00 	mov    $0x402d70,%rcx
  400f6d:	48 c7 c7 ed 11 40 00 	mov    $0x4011ed,%rdi
  400f74:	e8 87 fe ff ff       	callq  400e00 <__libc_start_main@plt>
  400f79:	f4                   	hlt    
  400f7a:	66 0f 1f 44 00 00    	nopw   0x0(%rax,%rax,1)

0000000000400f80 <deregister_tm_clones>:
  400f80:	b8 b8 54 60 00       	mov    $0x6054b8,%eax
  400f85:	48 3d b8 54 60 00    	cmp    $0x6054b8,%rax
  400f8b:	74 13                	je     400fa0 <deregister_tm_clones+0x20>
  400f8d:	b8 00 00 00 00       	mov    $0x0,%eax
  400f92:	48 85 c0             	test   %rax,%rax
  400f95:	74 09                	je     400fa0 <deregister_tm_clones+0x20>
  400f97:	bf b8 54 60 00       	mov    $0x6054b8,%edi
  400f9c:	ff e0                	jmpq   *%rax
  400f9e:	66 90                	xchg   %ax,%ax
  400fa0:	c3                   	retq   
  400fa1:	0f 1f 44 00 00       	nopl   0x0(%rax,%rax,1)
  400fa6:	66 2e 0f 1f 84 00 00 	nopw   %cs:0x0(%rax,%rax,1)
  400fad:	00 00 00 

0000000000400fb0 <register_tm_clones>:
  400fb0:	be b8 54 60 00       	mov    $0x6054b8,%esi
  400fb5:	48 81 ee b8 54 60 00 	sub    $0x6054b8,%rsi
  400fbc:	48 89 f0             	mov    %rsi,%rax
  400fbf:	48 c1 ee 3f          	shr    $0x3f,%rsi
  400fc3:	48 c1 f8 03          	sar    $0x3,%rax
  400fc7:	48 01 c6             	add    %rax,%rsi
  400fca:	48 d1 fe             	sar    %rsi
  400fcd:	74 11                	je     400fe0 <register_tm_clones+0x30>
  400fcf:	b8 00 00 00 00       	mov    $0x0,%eax
  400fd4:	48 85 c0             	test   %rax,%rax
  400fd7:	74 07                	je     400fe0 <register_tm_clones+0x30>
  400fd9:	bf b8 54 60 00       	mov    $0x6054b8,%edi
  400fde:	ff e0                	jmpq   *%rax
  400fe0:	c3                   	retq   
  400fe1:	0f 1f 44 00 00       	nopl   0x0(%rax,%rax,1)
  400fe6:	66 2e 0f 1f 84 00 00 	nopw   %cs:0x0(%rax,%rax,1)
  400fed:	00 00 00 

0000000000400ff0 <__do_global_dtors_aux>:
  400ff0:	80 3d e1 44 20 00 00 	cmpb   $0x0,0x2044e1(%rip)        # 6054d8 <completed.0>
  400ff7:	75 17                	jne    401010 <__do_global_dtors_aux+0x20>
  400ff9:	55                   	push   %rbp
  400ffa:	48 89 e5             	mov    %rsp,%rbp
  400ffd:	e8 7e ff ff ff       	callq  400f80 <deregister_tm_clones>
  401002:	c6 05 cf 44 20 00 01 	movb   $0x1,0x2044cf(%rip)        # 6054d8 <completed.0>
  401009:	5d                   	pop    %rbp
  40100a:	c3                   	retq   
  40100b:	0f 1f 44 00 00       	nopl   0x0(%rax,%rax,1)
  401010:	c3                   	retq   
  401011:	0f 1f 44 00 00       	nopl   0x0(%rax,%rax,1)
  401016:	66 2e 0f 1f 84 00 00 	nopw   %cs:0x0(%rax,%rax,1)
  40101d:	00 00 00 

0000000000401020 <frame_dummy>:
  401020:	eb 8e                	jmp    400fb0 <register_tm_clones>

0000000000401022 <usage>:
  401022:	48 83 ec 08          	sub    $0x8,%rsp
  401026:	48 89 fe             	mov    %rdi,%rsi
  401029:	83 3d e0 44 20 00 00 	cmpl   $0x0,0x2044e0(%rip)        # 605510 <is_checker>
  401030:	74 41                	je     401073 <usage+0x51>
  401032:	bf f8 2d 40 00       	mov    $0x402df8,%edi
  401037:	b8 00 00 00 00       	mov    $0x0,%eax
  40103c:	e8 6f fd ff ff       	callq  400db0 <printf@plt>
  401041:	bf 30 2e 40 00       	mov    $0x402e30,%edi
  401046:	e8 25 fd ff ff       	callq  400d70 <puts@plt>
  40104b:	bf a8 2f 40 00       	mov    $0x402fa8,%edi
  401050:	e8 1b fd ff ff       	callq  400d70 <puts@plt>
  401055:	bf 58 2e 40 00       	mov    $0x402e58,%edi
  40105a:	e8 11 fd ff ff       	callq  400d70 <puts@plt>
  40105f:	bf c2 2f 40 00       	mov    $0x402fc2,%edi
  401064:	e8 07 fd ff ff       	callq  400d70 <puts@plt>
  401069:	bf 00 00 00 00       	mov    $0x0,%edi
  40106e:	e8 ad fe ff ff       	callq  400f20 <exit@plt>
  401073:	bf de 2f 40 00       	mov    $0x402fde,%edi
  401078:	b8 00 00 00 00       	mov    $0x0,%eax
  40107d:	e8 2e fd ff ff       	callq  400db0 <printf@plt>
  401082:	bf 80 2e 40 00       	mov    $0x402e80,%edi
  401087:	e8 e4 fc ff ff       	callq  400d70 <puts@plt>
  40108c:	bf a8 2e 40 00       	mov    $0x402ea8,%edi
  401091:	e8 da fc ff ff       	callq  400d70 <puts@plt>
  401096:	bf fc 2f 40 00       	mov    $0x402ffc,%edi
  40109b:	e8 d0 fc ff ff       	callq  400d70 <puts@plt>
  4010a0:	eb c7                	jmp    401069 <usage+0x47>

00000000004010a2 <initialize_target>:
  4010a2:	55                   	push   %rbp
  4010a3:	53                   	push   %rbx
  4010a4:	48 81 ec 08 21 00 00 	sub    $0x2108,%rsp
  4010ab:	89 f5                	mov    %esi,%ebp
  4010ad:	89 3d 4d 44 20 00    	mov    %edi,0x20444d(%rip)        # 605500 <check_level>
  4010b3:	8b 3d af 40 20 00    	mov    0x2040af(%rip),%edi        # 605168 <target_id>
  4010b9:	e8 8e 1c 00 00       	callq  402d4c <gencookie>
  4010be:	89 c7                	mov    %eax,%edi
  4010c0:	89 05 46 44 20 00    	mov    %eax,0x204446(%rip)        # 60550c <cookie>
  4010c6:	e8 81 1c 00 00       	callq  402d4c <gencookie>
  4010cb:	89 05 37 44 20 00    	mov    %eax,0x204437(%rip)        # 605508 <authkey>
  4010d1:	8b 05 91 40 20 00    	mov    0x204091(%rip),%eax        # 605168 <target_id>
  4010d7:	8d 78 01             	lea    0x1(%rax),%edi
  4010da:	e8 61 fc ff ff       	callq  400d40 <srandom@plt>
  4010df:	e8 9c fd ff ff       	callq  400e80 <random@plt>
  4010e4:	48 89 c7             	mov    %rax,%rdi
  4010e7:	e8 b9 02 00 00       	callq  4013a5 <scramble>
  4010ec:	89 c3                	mov    %eax,%ebx
  4010ee:	85 ed                	test   %ebp,%ebp
  4010f0:	75 3d                	jne    40112f <initialize_target+0x8d>
  4010f2:	b8 00 00 00 00       	mov    $0x0,%eax
  4010f7:	01 d8                	add    %ebx,%eax
  4010f9:	0f b7 c0             	movzwl %ax,%eax
  4010fc:	8d 04 c5 00 01 00 00 	lea    0x100(,%rax,8),%eax
  401103:	89 c0                	mov    %eax,%eax
  401105:	48 89 05 a4 43 20 00 	mov    %rax,0x2043a4(%rip)        # 6054b0 <buf_offset>
  40110c:	c6 05 3d 40 20 00 72 	movb   $0x72,0x20403d(%rip)        # 605150 <target_prefix>
  401113:	83 3d 8e 43 20 00 00 	cmpl   $0x0,0x20438e(%rip)        # 6054a8 <notify>
  40111a:	74 09                	je     401125 <initialize_target+0x83>
  40111c:	83 3d ed 43 20 00 00 	cmpl   $0x0,0x2043ed(%rip)        # 605510 <is_checker>
  401123:	74 23                	je     401148 <initialize_target+0xa6>
  401125:	48 81 c4 08 21 00 00 	add    $0x2108,%rsp
  40112c:	5b                   	pop    %rbx
  40112d:	5d                   	pop    %rbp
  40112e:	c3                   	retq   
  40112f:	bf 00 00 00 00       	mov    $0x0,%edi
  401134:	e8 37 fd ff ff       	callq  400e70 <time@plt>
  401139:	48 89 c7             	mov    %rax,%rdi
  40113c:	e8 ff fb ff ff       	callq  400d40 <srandom@plt>
  401141:	e8 3a fd ff ff       	callq  400e80 <random@plt>
  401146:	eb af                	jmp    4010f7 <initialize_target+0x55>
  401148:	be 00 01 00 00       	mov    $0x100,%esi
  40114d:	48 89 e7             	mov    %rsp,%rdi
  401150:	e8 ab fd ff ff       	callq  400f00 <gethostname@plt>
  401155:	89 c5                	mov    %eax,%ebp
  401157:	85 c0                	test   %eax,%eax
  401159:	75 23                	jne    40117e <initialize_target+0xdc>
  40115b:	89 c3                	mov    %eax,%ebx
  40115d:	48 63 c3             	movslq %ebx,%rax
  401160:	48 8b 3c c5 80 51 60 	mov    0x605180(,%rax,8),%rdi
  401167:	00 
  401168:	48 85 ff             	test   %rdi,%rdi
  40116b:	74 2a                	je     401197 <initialize_target+0xf5>
  40116d:	48 89 e6             	mov    %rsp,%rsi
  401170:	e8 ab fb ff ff       	callq  400d20 <strcasecmp@plt>
  401175:	85 c0                	test   %eax,%eax
  401177:	74 19                	je     401192 <initialize_target+0xf0>
  401179:	83 c3 01             	add    $0x1,%ebx
  40117c:	eb df                	jmp    40115d <initialize_target+0xbb>
  40117e:	bf d8 2e 40 00       	mov    $0x402ed8,%edi
  401183:	e8 e8 fb ff ff       	callq  400d70 <puts@plt>
  401188:	bf 08 00 00 00       	mov    $0x8,%edi
  40118d:	e8 8e fd ff ff       	callq  400f20 <exit@plt>
  401192:	bd 01 00 00 00       	mov    $0x1,%ebp
  401197:	85 ed                	test   %ebp,%ebp
  401199:	74 36                	je     4011d1 <initialize_target+0x12f>
  40119b:	48 8d bc 24 00 01 00 	lea    0x100(%rsp),%rdi
  4011a2:	00 
  4011a3:	e8 0c 19 00 00       	callq  402ab4 <init_driver>
  4011a8:	85 c0                	test   %eax,%eax
  4011aa:	0f 89 75 ff ff ff    	jns    401125 <initialize_target+0x83>
  4011b0:	48 8d b4 24 00 01 00 	lea    0x100(%rsp),%rsi
  4011b7:	00 
  4011b8:	bf 50 2f 40 00       	mov    $0x402f50,%edi
  4011bd:	b8 00 00 00 00       	mov    $0x0,%eax
  4011c2:	e8 e9 fb ff ff       	callq  400db0 <printf@plt>
  4011c7:	bf 08 00 00 00       	mov    $0x8,%edi
  4011cc:	e8 4f fd ff ff       	callq  400f20 <exit@plt>
  4011d1:	48 89 e6             	mov    %rsp,%rsi
  4011d4:	bf 10 2f 40 00       	mov    $0x402f10,%edi
  4011d9:	b8 00 00 00 00       	mov    $0x0,%eax
  4011de:	e8 cd fb ff ff       	callq  400db0 <printf@plt>
  4011e3:	bf 08 00 00 00       	mov    $0x8,%edi
  4011e8:	e8 33 fd ff ff       	callq  400f20 <exit@plt>

00000000004011ed <main>:
  4011ed:	41 56                	push   %r14
  4011ef:	41 55                	push   %r13
  4011f1:	41 54                	push   %r12
  4011f3:	55                   	push   %rbp
  4011f4:	53                   	push   %rbx
  4011f5:	89 fd                	mov    %edi,%ebp
  4011f7:	48 89 f3             	mov    %rsi,%rbx
  4011fa:	be cc 1e 40 00       	mov    $0x401ecc,%esi
  4011ff:	bf 0b 00 00 00       	mov    $0xb,%edi
  401204:	e8 07 fc ff ff       	callq  400e10 <signal@plt>
  401209:	be 7e 1e 40 00       	mov    $0x401e7e,%esi
  40120e:	bf 07 00 00 00       	mov    $0x7,%edi
  401213:	e8 f8 fb ff ff       	callq  400e10 <signal@plt>
  401218:	be 1a 1f 40 00       	mov    $0x401f1a,%esi
  40121d:	bf 04 00 00 00       	mov    $0x4,%edi
  401222:	e8 e9 fb ff ff       	callq  400e10 <signal@plt>
  401227:	83 3d e2 42 20 00 00 	cmpl   $0x0,0x2042e2(%rip)        # 605510 <is_checker>
  40122e:	75 25                	jne    401255 <main+0x68>
  401230:	41 bc 1d 30 40 00    	mov    $0x40301d,%r12d
  401236:	48 8b 05 83 42 20 00 	mov    0x204283(%rip),%rax        # 6054c0 <stdin@@GLIBC_2.2.5>
  40123d:	48 89 05 b4 42 20 00 	mov    %rax,0x2042b4(%rip)        # 6054f8 <infile>
  401244:	41 bd 00 00 00 00    	mov    $0x0,%r13d
  40124a:	41 be 00 00 00 00    	mov    $0x0,%r14d
  401250:	e9 81 00 00 00       	jmpq   4012d6 <main+0xe9>
  401255:	be 68 1f 40 00       	mov    $0x401f68,%esi
  40125a:	bf 0e 00 00 00       	mov    $0xe,%edi
  40125f:	e8 ac fb ff ff       	callq  400e10 <signal@plt>
  401264:	bf 05 00 00 00       	mov    $0x5,%edi
  401269:	e8 62 fb ff ff       	callq  400dd0 <alarm@plt>
  40126e:	41 bc 15 30 40 00    	mov    $0x403015,%r12d
  401274:	eb c0                	jmp    401236 <main+0x49>
  401276:	48 8b 3b             	mov    (%rbx),%rdi
  401279:	e8 a4 fd ff ff       	callq  401022 <usage>
  40127e:	be b5 33 40 00       	mov    $0x4033b5,%esi
  401283:	48 8b 3d 3e 42 20 00 	mov    0x20423e(%rip),%rdi        # 6054c8 <optarg@@GLIBC_2.2.5>
  40128a:	e8 41 fc ff ff       	callq  400ed0 <fopen@plt>
  40128f:	48 89 05 62 42 20 00 	mov    %rax,0x204262(%rip)        # 6054f8 <infile>
  401296:	48 85 c0             	test   %rax,%rax
  401299:	75 3b                	jne    4012d6 <main+0xe9>
  40129b:	48 8b 15 26 42 20 00 	mov    0x204226(%rip),%rdx        # 6054c8 <optarg@@GLIBC_2.2.5>
  4012a2:	be 22 30 40 00       	mov    $0x403022,%esi
  4012a7:	48 8b 3d 22 42 20 00 	mov    0x204222(%rip),%rdi        # 6054d0 <stderr@@GLIBC_2.2.5>
  4012ae:	e8 7d fb ff ff       	callq  400e30 <fprintf@plt>
  4012b3:	b8 01 00 00 00       	mov    $0x1,%eax
  4012b8:	e9 c1 00 00 00       	jmpq   40137e <main+0x191>
  4012bd:	ba 10 00 00 00       	mov    $0x10,%edx
  4012c2:	be 00 00 00 00       	mov    $0x0,%esi
  4012c7:	48 8b 3d fa 41 20 00 	mov    0x2041fa(%rip),%rdi        # 6054c8 <optarg@@GLIBC_2.2.5>
  4012ce:	e8 1d fc ff ff       	callq  400ef0 <strtoul@plt>
  4012d3:	41 89 c6             	mov    %eax,%r14d
  4012d6:	4c 89 e2             	mov    %r12,%rdx
  4012d9:	48 89 de             	mov    %rbx,%rsi
  4012dc:	89 ef                	mov    %ebp,%edi
  4012de:	e8 fd fb ff ff       	callq  400ee0 <getopt@plt>
  4012e3:	3c ff                	cmp    $0xff,%al
  4012e5:	74 52                	je     401339 <main+0x14c>
  4012e7:	0f be f0             	movsbl %al,%esi
  4012ea:	83 e8 61             	sub    $0x61,%eax
  4012ed:	3c 10                	cmp    $0x10,%al
  4012ef:	77 31                	ja     401322 <main+0x135>
  4012f1:	0f b6 c0             	movzbl %al,%eax
  4012f4:	ff 24 c5 60 30 40 00 	jmpq   *0x403060(,%rax,8)
  4012fb:	ba 0a 00 00 00       	mov    $0xa,%edx
  401300:	be 00 00 00 00       	mov    $0x0,%esi
  401305:	48 8b 3d bc 41 20 00 	mov    0x2041bc(%rip),%rdi        # 6054c8 <optarg@@GLIBC_2.2.5>
  40130c:	e8 3f fb ff ff       	callq  400e50 <strtol@plt>
  401311:	41 89 c5             	mov    %eax,%r13d
  401314:	eb c0                	jmp    4012d6 <main+0xe9>
  401316:	c7 05 88 41 20 00 00 	movl   $0x0,0x204188(%rip)        # 6054a8 <notify>
  40131d:	00 00 00 
  401320:	eb b4                	jmp    4012d6 <main+0xe9>
  401322:	bf 3f 30 40 00       	mov    $0x40303f,%edi
  401327:	b8 00 00 00 00       	mov    $0x0,%eax
  40132c:	e8 7f fa ff ff       	callq  400db0 <printf@plt>
  401331:	48 8b 3b             	mov    (%rbx),%rdi
  401334:	e8 e9 fc ff ff       	callq  401022 <usage>
  401339:	be 01 00 00 00       	mov    $0x1,%esi
  40133e:	44 89 ef             	mov    %r13d,%edi
  401341:	e8 5c fd ff ff       	callq  4010a2 <initialize_target>
  401346:	83 3d c3 41 20 00 00 	cmpl   $0x0,0x2041c3(%rip)        # 605510 <is_checker>
  40134d:	74 09                	je     401358 <main+0x16b>
  40134f:	44 39 35 b2 41 20 00 	cmp    %r14d,0x2041b2(%rip)        # 605508 <authkey>
  401356:	75 2f                	jne    401387 <main+0x19a>
  401358:	8b 35 ae 41 20 00    	mov    0x2041ae(%rip),%esi        # 60550c <cookie>
  40135e:	bf 52 30 40 00       	mov    $0x403052,%edi
  401363:	b8 00 00 00 00       	mov    $0x0,%eax
  401368:	e8 43 fa ff ff       	callq  400db0 <printf@plt>
  40136d:	48 8b 3d 3c 41 20 00 	mov    0x20413c(%rip),%rdi        # 6054b0 <buf_offset>
  401374:	e8 3d 0c 00 00       	callq  401fb6 <launch>
  401379:	b8 00 00 00 00       	mov    $0x0,%eax
  40137e:	5b                   	pop    %rbx
  40137f:	5d                   	pop    %rbp
  401380:	41 5c                	pop    %r12
  401382:	41 5d                	pop    %r13
  401384:	41 5e                	pop    %r14
  401386:	c3                   	retq   
  401387:	44 89 f6             	mov    %r14d,%esi
  40138a:	bf 78 2f 40 00       	mov    $0x402f78,%edi
  40138f:	b8 00 00 00 00       	mov    $0x0,%eax
  401394:	e8 17 fa ff ff       	callq  400db0 <printf@plt>
  401399:	b8 00 00 00 00       	mov    $0x0,%eax
  40139e:	e8 df 07 00 00       	callq  401b82 <check_fail>
  4013a3:	eb b3                	jmp    401358 <main+0x16b>

00000000004013a5 <scramble>:
  4013a5:	b8 00 00 00 00       	mov    $0x0,%eax
  4013aa:	eb 11                	jmp    4013bd <scramble+0x18>
  4013ac:	69 d0 14 13 00 00    	imul   $0x1314,%eax,%edx
  4013b2:	01 fa                	add    %edi,%edx
  4013b4:	89 c1                	mov    %eax,%ecx
  4013b6:	89 54 8c d0          	mov    %edx,-0x30(%rsp,%rcx,4)
  4013ba:	83 c0 01             	add    $0x1,%eax
  4013bd:	83 f8 09             	cmp    $0x9,%eax
  4013c0:	76 ea                	jbe    4013ac <scramble+0x7>
  4013c2:	8b 44 24 f0          	mov    -0x10(%rsp),%eax
  4013c6:	69 c0 9a e5 00 00    	imul   $0xe59a,%eax,%eax
  4013cc:	89 44 24 f0          	mov    %eax,-0x10(%rsp)
  4013d0:	8b 44 24 e4          	mov    -0x1c(%rsp),%eax
  4013d4:	69 c0 5c 93 00 00    	imul   $0x935c,%eax,%eax
  4013da:	89 44 24 e4          	mov    %eax,-0x1c(%rsp)
  4013de:	8b 44 24 f0          	mov    -0x10(%rsp),%eax
  4013e2:	69 c0 a0 b8 00 00    	imul   $0xb8a0,%eax,%eax
  4013e8:	89 44 24 f0          	mov    %eax,-0x10(%rsp)
  4013ec:	8b 44 24 d8          	mov    -0x28(%rsp),%eax
  4013f0:	69 c0 71 e6 00 00    	imul   $0xe671,%eax,%eax
  4013f6:	89 44 24 d8          	mov    %eax,-0x28(%rsp)
  4013fa:	8b 44 24 e8          	mov    -0x18(%rsp),%eax
  4013fe:	69 c0 42 4a 00 00    	imul   $0x4a42,%eax,%eax
  401404:	89 44 24 e8          	mov    %eax,-0x18(%rsp)
  401408:	8b 44 24 f4          	mov    -0xc(%rsp),%eax
  40140c:	69 c0 5b ae 00 00    	imul   $0xae5b,%eax,%eax
  401412:	89 44 24 f4          	mov    %eax,-0xc(%rsp)
  401416:	8b 44 24 dc          	mov    -0x24(%rsp),%eax
  40141a:	69 c0 1d 7c 00 00    	imul   $0x7c1d,%eax,%eax
  401420:	89 44 24 dc          	mov    %eax,-0x24(%rsp)
  401424:	8b 44 24 e0          	mov    -0x20(%rsp),%eax
  401428:	69 c0 50 2e 00 00    	imul   $0x2e50,%eax,%eax
  40142e:	89 44 24 e0          	mov    %eax,-0x20(%rsp)
  401432:	8b 44 24 f4          	mov    -0xc(%rsp),%eax
  401436:	69 c0 32 28 00 00    	imul   $0x2832,%eax,%eax
  40143c:	89 44 24 f4          	mov    %eax,-0xc(%rsp)
  401440:	8b 44 24 f4          	mov    -0xc(%rsp),%eax
  401444:	69 c0 fc 0b 00 00    	imul   $0xbfc,%eax,%eax
  40144a:	89 44 24 f4          	mov    %eax,-0xc(%rsp)
  40144e:	8b 44 24 f0          	mov    -0x10(%rsp),%eax
  401452:	69 c0 cb 1d 00 00    	imul   $0x1dcb,%eax,%eax
  401458:	89 44 24 f0          	mov    %eax,-0x10(%rsp)
  40145c:	8b 44 24 ec          	mov    -0x14(%rsp),%eax
  401460:	69 c0 8d 71 00 00    	imul   $0x718d,%eax,%eax
  401466:	89 44 24 ec          	mov    %eax,-0x14(%rsp)
  40146a:	8b 44 24 f4          	mov    -0xc(%rsp),%eax
  40146e:	69 c0 eb b0 00 00    	imul   $0xb0eb,%eax,%eax
  401474:	89 44 24 f4          	mov    %eax,-0xc(%rsp)
  401478:	8b 44 24 ec          	mov    -0x14(%rsp),%eax
  40147c:	69 c0 1f 5f 00 00    	imul   $0x5f1f,%eax,%eax
  401482:	89 44 24 ec          	mov    %eax,-0x14(%rsp)
  401486:	8b 44 24 e0          	mov    -0x20(%rsp),%eax
  40148a:	69 c0 08 e1 00 00    	imul   $0xe108,%eax,%eax
  401490:	89 44 24 e0          	mov    %eax,-0x20(%rsp)
  401494:	8b 44 24 f0          	mov    -0x10(%rsp),%eax
  401498:	69 c0 e0 df 00 00    	imul   $0xdfe0,%eax,%eax
  40149e:	89 44 24 f0          	mov    %eax,-0x10(%rsp)
  4014a2:	8b 44 24 d0          	mov    -0x30(%rsp),%eax
  4014a6:	69 c0 73 eb 00 00    	imul   $0xeb73,%eax,%eax
  4014ac:	89 44 24 d0          	mov    %eax,-0x30(%rsp)
  4014b0:	8b 44 24 ec          	mov    -0x14(%rsp),%eax
  4014b4:	69 c0 50 25 00 00    	imul   $0x2550,%eax,%eax
  4014ba:	89 44 24 ec          	mov    %eax,-0x14(%rsp)
  4014be:	8b 44 24 d4          	mov    -0x2c(%rsp),%eax
  4014c2:	69 c0 46 01 00 00    	imul   $0x146,%eax,%eax
  4014c8:	89 44 24 d4          	mov    %eax,-0x2c(%rsp)
  4014cc:	8b 44 24 d4          	mov    -0x2c(%rsp),%eax
  4014d0:	69 c0 1d 08 00 00    	imul   $0x81d,%eax,%eax
  4014d6:	89 44 24 d4          	mov    %eax,-0x2c(%rsp)
  4014da:	8b 44 24 d0          	mov    -0x30(%rsp),%eax
  4014de:	69 c0 15 58 00 00    	imul   $0x5815,%eax,%eax
  4014e4:	89 44 24 d0          	mov    %eax,-0x30(%rsp)
  4014e8:	8b 44 24 e4          	mov    -0x1c(%rsp),%eax
  4014ec:	69 c0 50 44 00 00    	imul   $0x4450,%eax,%eax
  4014f2:	89 44 24 e4          	mov    %eax,-0x1c(%rsp)
  4014f6:	8b 44 24 d4          	mov    -0x2c(%rsp),%eax
  4014fa:	69 c0 25 31 00 00    	imul   $0x3125,%eax,%eax
  401500:	89 44 24 d4          	mov    %eax,-0x2c(%rsp)
  401504:	8b 44 24 f0          	mov    -0x10(%rsp),%eax
  401508:	69 c0 b5 d3 00 00    	imul   $0xd3b5,%eax,%eax
  40150e:	89 44 24 f0          	mov    %eax,-0x10(%rsp)
  401512:	8b 44 24 f4          	mov    -0xc(%rsp),%eax
  401516:	69 c0 84 3a 00 00    	imul   $0x3a84,%eax,%eax
  40151c:	89 44 24 f4          	mov    %eax,-0xc(%rsp)
  401520:	8b 44 24 d8          	mov    -0x28(%rsp),%eax
  401524:	69 c0 83 8c 00 00    	imul   $0x8c83,%eax,%eax
  40152a:	89 44 24 d8          	mov    %eax,-0x28(%rsp)
  40152e:	8b 44 24 d8          	mov    -0x28(%rsp),%eax
  401532:	69 c0 13 65 00 00    	imul   $0x6513,%eax,%eax
  401538:	89 44 24 d8          	mov    %eax,-0x28(%rsp)
  40153c:	8b 44 24 e0          	mov    -0x20(%rsp),%eax
  401540:	69 c0 85 4c 00 00    	imul   $0x4c85,%eax,%eax
  401546:	89 44 24 e0          	mov    %eax,-0x20(%rsp)
  40154a:	8b 44 24 e0          	mov    -0x20(%rsp),%eax
  40154e:	69 c0 03 0f 00 00    	imul   $0xf03,%eax,%eax
  401554:	89 44 24 e0          	mov    %eax,-0x20(%rsp)
  401558:	8b 44 24 d8          	mov    -0x28(%rsp),%eax
  40155c:	69 c0 c9 e2 00 00    	imul   $0xe2c9,%eax,%eax
  401562:	89 44 24 d8          	mov    %eax,-0x28(%rsp)
  401566:	8b 44 24 e4          	mov    -0x1c(%rsp),%eax
  40156a:	69 c0 d6 d6 00 00    	imul   $0xd6d6,%eax,%eax
  401570:	89 44 24 e4          	mov    %eax,-0x1c(%rsp)
  401574:	8b 44 24 ec          	mov    -0x14(%rsp),%eax
  401578:	69 c0 ae b6 00 00    	imul   $0xb6ae,%eax,%eax
  40157e:	89 44 24 ec          	mov    %eax,-0x14(%rsp)
  401582:	8b 44 24 e0          	mov    -0x20(%rsp),%eax
  401586:	69 c0 e6 35 00 00    	imul   $0x35e6,%eax,%eax
  40158c:	89 44 24 e0          	mov    %eax,-0x20(%rsp)
  401590:	8b 44 24 f0          	mov    -0x10(%rsp),%eax
  401594:	69 c0 5c 66 00 00    	imul   $0x665c,%eax,%eax
  40159a:	89 44 24 f0          	mov    %eax,-0x10(%rsp)
  40159e:	8b 44 24 e8          	mov    -0x18(%rsp),%eax
  4015a2:	69 c0 bf e7 00 00    	imul   $0xe7bf,%eax,%eax
  4015a8:	89 44 24 e8          	mov    %eax,-0x18(%rsp)
  4015ac:	8b 44 24 e4          	mov    -0x1c(%rsp),%eax
  4015b0:	69 c0 b5 82 00 00    	imul   $0x82b5,%eax,%eax
  4015b6:	89 44 24 e4          	mov    %eax,-0x1c(%rsp)
  4015ba:	8b 44 24 d8          	mov    -0x28(%rsp),%eax
  4015be:	69 c0 f2 24 00 00    	imul   $0x24f2,%eax,%eax
  4015c4:	89 44 24 d8          	mov    %eax,-0x28(%rsp)
  4015c8:	8b 44 24 d8          	mov    -0x28(%rsp),%eax
  4015cc:	69 c0 08 14 00 00    	imul   $0x1408,%eax,%eax
  4015d2:	89 44 24 d8          	mov    %eax,-0x28(%rsp)
  4015d6:	8b 44 24 dc          	mov    -0x24(%rsp),%eax
  4015da:	69 c0 a7 39 00 00    	imul   $0x39a7,%eax,%eax
  4015e0:	89 44 24 dc          	mov    %eax,-0x24(%rsp)
  4015e4:	8b 44 24 ec          	mov    -0x14(%rsp),%eax
  4015e8:	69 c0 70 af 00 00    	imul   $0xaf70,%eax,%eax
  4015ee:	89 44 24 ec          	mov    %eax,-0x14(%rsp)
  4015f2:	8b 44 24 d4          	mov    -0x2c(%rsp),%eax
  4015f6:	69 c0 6e c7 00 00    	imul   $0xc76e,%eax,%eax
  4015fc:	89 44 24 d4          	mov    %eax,-0x2c(%rsp)
  401600:	8b 44 24 dc          	mov    -0x24(%rsp),%eax
  401604:	69 c0 7b cc 00 00    	imul   $0xcc7b,%eax,%eax
  40160a:	89 44 24 dc          	mov    %eax,-0x24(%rsp)
  40160e:	8b 44 24 d8          	mov    -0x28(%rsp),%eax
  401612:	69 c0 03 3a 00 00    	imul   $0x3a03,%eax,%eax
  401618:	89 44 24 d8          	mov    %eax,-0x28(%rsp)
  40161c:	8b 44 24 e8          	mov    -0x18(%rsp),%eax
  401620:	69 c0 7f 42 00 00    	imul   $0x427f,%eax,%eax
  401626:	89 44 24 e8          	mov    %eax,-0x18(%rsp)
  40162a:	8b 44 24 d0          	mov    -0x30(%rsp),%eax
  40162e:	69 c0 a4 c4 00 00    	imul   $0xc4a4,%eax,%eax
  401634:	89 44 24 d0          	mov    %eax,-0x30(%rsp)
  401638:	8b 44 24 d4          	mov    -0x2c(%rsp),%eax
  40163c:	69 c0 12 39 00 00    	imul   $0x3912,%eax,%eax
  401642:	89 44 24 d4          	mov    %eax,-0x2c(%rsp)
  401646:	8b 44 24 f4          	mov    -0xc(%rsp),%eax
  40164a:	69 c0 f2 e7 00 00    	imul   $0xe7f2,%eax,%eax
  401650:	89 44 24 f4          	mov    %eax,-0xc(%rsp)
  401654:	8b 44 24 e8          	mov    -0x18(%rsp),%eax
  401658:	69 c0 c4 5d 00 00    	imul   $0x5dc4,%eax,%eax
  40165e:	89 44 24 e8          	mov    %eax,-0x18(%rsp)
  401662:	8b 44 24 e4          	mov    -0x1c(%rsp),%eax
  401666:	69 c0 bf cb 00 00    	imul   $0xcbbf,%eax,%eax
  40166c:	89 44 24 e4          	mov    %eax,-0x1c(%rsp)
  401670:	8b 44 24 dc          	mov    -0x24(%rsp),%eax
  401674:	69 c0 04 55 00 00    	imul   $0x5504,%eax,%eax
  40167a:	89 44 24 dc          	mov    %eax,-0x24(%rsp)
  40167e:	8b 44 24 e8          	mov    -0x18(%rsp),%eax
  401682:	69 c0 9b 32 00 00    	imul   $0x329b,%eax,%eax
  401688:	89 44 24 e8          	mov    %eax,-0x18(%rsp)
  40168c:	8b 44 24 d4          	mov    -0x2c(%rsp),%eax
  401690:	69 c0 54 f3 00 00    	imul   $0xf354,%eax,%eax
  401696:	89 44 24 d4          	mov    %eax,-0x2c(%rsp)
  40169a:	8b 44 24 d0          	mov    -0x30(%rsp),%eax
  40169e:	69 c0 c0 9e 00 00    	imul   $0x9ec0,%eax,%eax
  4016a4:	89 44 24 d0          	mov    %eax,-0x30(%rsp)
  4016a8:	8b 44 24 dc          	mov    -0x24(%rsp),%eax
  4016ac:	69 c0 a5 ad 00 00    	imul   $0xada5,%eax,%eax
  4016b2:	89 44 24 dc          	mov    %eax,-0x24(%rsp)
  4016b6:	8b 44 24 ec          	mov    -0x14(%rsp),%eax
  4016ba:	69 c0 19 ef 00 00    	imul   $0xef19,%eax,%eax
  4016c0:	89 44 24 ec          	mov    %eax,-0x14(%rsp)
  4016c4:	8b 44 24 f4          	mov    -0xc(%rsp),%eax
  4016c8:	69 c0 92 4c 00 00    	imul   $0x4c92,%eax,%eax
  4016ce:	89 44 24 f4          	mov    %eax,-0xc(%rsp)
  4016d2:	8b 44 24 e0          	mov    -0x20(%rsp),%eax
  4016d6:	69 c0 08 99 00 00    	imul   $0x9908,%eax,%eax
  4016dc:	89 44 24 e0          	mov    %eax,-0x20(%rsp)
  4016e0:	8b 44 24 e4          	mov    -0x1c(%rsp),%eax
  4016e4:	69 c0 08 e3 00 00    	imul   $0xe308,%eax,%eax
  4016ea:	89 44 24 e4          	mov    %eax,-0x1c(%rsp)
  4016ee:	8b 44 24 dc          	mov    -0x24(%rsp),%eax
  4016f2:	69 c0 0e 32 00 00    	imul   $0x320e,%eax,%eax
  4016f8:	89 44 24 dc          	mov    %eax,-0x24(%rsp)
  4016fc:	8b 44 24 ec          	mov    -0x14(%rsp),%eax
  401700:	69 c0 12 1c 00 00    	imul   $0x1c12,%eax,%eax
  401706:	89 44 24 ec          	mov    %eax,-0x14(%rsp)
  40170a:	8b 44 24 d8          	mov    -0x28(%rsp),%eax
  40170e:	69 c0 cf 4a 00 00    	imul   $0x4acf,%eax,%eax
  401714:	89 44 24 d8          	mov    %eax,-0x28(%rsp)
  401718:	8b 44 24 d4          	mov    -0x2c(%rsp),%eax
  40171c:	69 c0 2e 92 00 00    	imul   $0x922e,%eax,%eax
  401722:	89 44 24 d4          	mov    %eax,-0x2c(%rsp)
  401726:	8b 44 24 e8          	mov    -0x18(%rsp),%eax
  40172a:	69 c0 e5 44 00 00    	imul   $0x44e5,%eax,%eax
  401730:	89 44 24 e8          	mov    %eax,-0x18(%rsp)
  401734:	8b 44 24 f4          	mov    -0xc(%rsp),%eax
  401738:	69 c0 99 50 00 00    	imul   $0x5099,%eax,%eax
  40173e:	89 44 24 f4          	mov    %eax,-0xc(%rsp)
  401742:	8b 44 24 e0          	mov    -0x20(%rsp),%eax
  401746:	69 c0 13 b4 00 00    	imul   $0xb413,%eax,%eax
  40174c:	89 44 24 e0          	mov    %eax,-0x20(%rsp)
  401750:	8b 44 24 e8          	mov    -0x18(%rsp),%eax
  401754:	69 c0 24 c4 00 00    	imul   $0xc424,%eax,%eax
  40175a:	89 44 24 e8          	mov    %eax,-0x18(%rsp)
  40175e:	8b 44 24 e0          	mov    -0x20(%rsp),%eax
  401762:	69 c0 58 7d 00 00    	imul   $0x7d58,%eax,%eax
  401768:	89 44 24 e0          	mov    %eax,-0x20(%rsp)
  40176c:	8b 44 24 e0          	mov    -0x20(%rsp),%eax
  401770:	69 c0 3c 3e 00 00    	imul   $0x3e3c,%eax,%eax
  401776:	89 44 24 e0          	mov    %eax,-0x20(%rsp)
  40177a:	8b 44 24 d4          	mov    -0x2c(%rsp),%eax
  40177e:	69 c0 d4 be 00 00    	imul   $0xbed4,%eax,%eax
  401784:	89 44 24 d4          	mov    %eax,-0x2c(%rsp)
  401788:	8b 44 24 d4          	mov    -0x2c(%rsp),%eax
  40178c:	69 c0 7f f4 00 00    	imul   $0xf47f,%eax,%eax
  401792:	89 44 24 d4          	mov    %eax,-0x2c(%rsp)
  401796:	8b 44 24 d4          	mov    -0x2c(%rsp),%eax
  40179a:	69 c0 f7 48 00 00    	imul   $0x48f7,%eax,%eax
  4017a0:	89 44 24 d4          	mov    %eax,-0x2c(%rsp)
  4017a4:	8b 44 24 d4          	mov    -0x2c(%rsp),%eax
  4017a8:	69 c0 74 64 00 00    	imul   $0x6474,%eax,%eax
  4017ae:	89 44 24 d4          	mov    %eax,-0x2c(%rsp)
  4017b2:	8b 44 24 e8          	mov    -0x18(%rsp),%eax
  4017b6:	69 c0 1f 5a 00 00    	imul   $0x5a1f,%eax,%eax
  4017bc:	89 44 24 e8          	mov    %eax,-0x18(%rsp)
  4017c0:	8b 44 24 e8          	mov    -0x18(%rsp),%eax
  4017c4:	69 c0 0b b5 00 00    	imul   $0xb50b,%eax,%eax
  4017ca:	89 44 24 e8          	mov    %eax,-0x18(%rsp)
  4017ce:	8b 44 24 d4          	mov    -0x2c(%rsp),%eax
  4017d2:	69 c0 03 6d 00 00    	imul   $0x6d03,%eax,%eax
  4017d8:	89 44 24 d4          	mov    %eax,-0x2c(%rsp)
  4017dc:	8b 44 24 e0          	mov    -0x20(%rsp),%eax
  4017e0:	69 c0 e1 82 00 00    	imul   $0x82e1,%eax,%eax
  4017e6:	89 44 24 e0          	mov    %eax,-0x20(%rsp)
  4017ea:	8b 44 24 d4          	mov    -0x2c(%rsp),%eax
  4017ee:	69 c0 41 26 00 00    	imul   $0x2641,%eax,%eax
  4017f4:	89 44 24 d4          	mov    %eax,-0x2c(%rsp)
  4017f8:	8b 44 24 ec          	mov    -0x14(%rsp),%eax
  4017fc:	69 c0 94 ea 00 00    	imul   $0xea94,%eax,%eax
  401802:	89 44 24 ec          	mov    %eax,-0x14(%rsp)
  401806:	8b 44 24 ec          	mov    -0x14(%rsp),%eax
  40180a:	69 c0 01 05 00 00    	imul   $0x501,%eax,%eax
  401810:	89 44 24 ec          	mov    %eax,-0x14(%rsp)
  401814:	8b 44 24 dc          	mov    -0x24(%rsp),%eax
  401818:	69 c0 cc 7b 00 00    	imul   $0x7bcc,%eax,%eax
  40181e:	89 44 24 dc          	mov    %eax,-0x24(%rsp)
  401822:	8b 44 24 e0          	mov    -0x20(%rsp),%eax
  401826:	69 c0 cb e0 00 00    	imul   $0xe0cb,%eax,%eax
  40182c:	89 44 24 e0          	mov    %eax,-0x20(%rsp)
  401830:	8b 44 24 ec          	mov    -0x14(%rsp),%eax
  401834:	69 c0 c3 9f 00 00    	imul   $0x9fc3,%eax,%eax
  40183a:	89 44 24 ec          	mov    %eax,-0x14(%rsp)
  40183e:	b8 00 00 00 00       	mov    $0x0,%eax
  401843:	ba 00 00 00 00       	mov    $0x0,%edx
  401848:	eb 0b                	jmp    401855 <scramble+0x4b0>
  40184a:	89 c1                	mov    %eax,%ecx
  40184c:	8b 4c 8c d0          	mov    -0x30(%rsp,%rcx,4),%ecx
  401850:	01 ca                	add    %ecx,%edx
  401852:	83 c0 01             	add    $0x1,%eax
  401855:	83 f8 09             	cmp    $0x9,%eax
  401858:	76 f0                	jbe    40184a <scramble+0x4a5>
  40185a:	89 d0                	mov    %edx,%eax
  40185c:	c3                   	retq   

000000000040185d <getbuf>:
  40185d:	48 83 ec 18          	sub    $0x18,%rsp
  401861:	48 89 e7             	mov    %rsp,%rdi
  401864:	e8 48 03 00 00       	callq  401bb1 <Gets>
  401869:	b8 01 00 00 00       	mov    $0x1,%eax
  40186e:	48 83 c4 18          	add    $0x18,%rsp
  401872:	c3                   	retq   

0000000000401873 <touch1>:
  401873:	48 83 ec 08          	sub    $0x8,%rsp
  401877:	c7 05 83 3c 20 00 01 	movl   $0x1,0x203c83(%rip)        # 605504 <vlevel>
  40187e:	00 00 00 
  401881:	bf 0b 32 40 00       	mov    $0x40320b,%edi
  401886:	e8 e5 f4 ff ff       	callq  400d70 <puts@plt>
  40188b:	bf 01 00 00 00       	mov    $0x1,%edi
  401890:	e8 0f 05 00 00       	callq  401da4 <validate>
  401895:	bf 00 00 00 00       	mov    $0x0,%edi
  40189a:	e8 81 f6 ff ff       	callq  400f20 <exit@plt>

000000000040189f <touch2>:
  40189f:	48 83 ec 08          	sub    $0x8,%rsp
  4018a3:	89 fe                	mov    %edi,%esi
  4018a5:	c7 05 55 3c 20 00 02 	movl   $0x2,0x203c55(%rip)        # 605504 <vlevel>
  4018ac:	00 00 00 
  4018af:	39 3d 57 3c 20 00    	cmp    %edi,0x203c57(%rip)        # 60550c <cookie>
  4018b5:	74 23                	je     4018da <touch2+0x3b>
  4018b7:	bf 58 32 40 00       	mov    $0x403258,%edi
  4018bc:	b8 00 00 00 00       	mov    $0x0,%eax
  4018c1:	e8 ea f4 ff ff       	callq  400db0 <printf@plt>
  4018c6:	bf 02 00 00 00       	mov    $0x2,%edi
  4018cb:	e8 86 05 00 00       	callq  401e56 <fail>
  4018d0:	bf 00 00 00 00       	mov    $0x0,%edi
  4018d5:	e8 46 f6 ff ff       	callq  400f20 <exit@plt>
  4018da:	bf 30 32 40 00       	mov    $0x403230,%edi
  4018df:	b8 00 00 00 00       	mov    $0x0,%eax
  4018e4:	e8 c7 f4 ff ff       	callq  400db0 <printf@plt>
  4018e9:	bf 02 00 00 00       	mov    $0x2,%edi
  4018ee:	e8 b1 04 00 00       	callq  401da4 <validate>
  4018f3:	eb db                	jmp    4018d0 <touch2+0x31>

00000000004018f5 <hexmatch>:
  4018f5:	41 54                	push   %r12
  4018f7:	55                   	push   %rbp
  4018f8:	53                   	push   %rbx
  4018f9:	48 83 ec 70          	sub    $0x70,%rsp
  4018fd:	89 fd                	mov    %edi,%ebp
  4018ff:	48 89 f3             	mov    %rsi,%rbx
  401902:	e8 79 f5 ff ff       	callq  400e80 <random@plt>
  401907:	48 89 c1             	mov    %rax,%rcx
  40190a:	48 ba 0b d7 a3 70 3d 	movabs $0xa3d70a3d70a3d70b,%rdx
  401911:	0a d7 a3 
  401914:	48 f7 ea             	imul   %rdx
  401917:	48 01 ca             	add    %rcx,%rdx
  40191a:	48 c1 fa 06          	sar    $0x6,%rdx
  40191e:	48 89 c8             	mov    %rcx,%rax
  401921:	48 c1 f8 3f          	sar    $0x3f,%rax
  401925:	48 29 c2             	sub    %rax,%rdx
  401928:	48 8d 04 92          	lea    (%rdx,%rdx,4),%rax
  40192c:	48 8d 04 80          	lea    (%rax,%rax,4),%rax
  401930:	48 c1 e0 02          	shl    $0x2,%rax
  401934:	48 29 c1             	sub    %rax,%rcx
  401937:	4c 8d 24 0c          	lea    (%rsp,%rcx,1),%r12
  40193b:	89 ea                	mov    %ebp,%edx
  40193d:	be 28 32 40 00       	mov    $0x403228,%esi
  401942:	4c 89 e7             	mov    %r12,%rdi
  401945:	b8 00 00 00 00       	mov    $0x0,%eax
  40194a:	e8 c1 f5 ff ff       	callq  400f10 <sprintf@plt>
  40194f:	ba 09 00 00 00       	mov    $0x9,%edx
  401954:	4c 89 e6             	mov    %r12,%rsi
  401957:	48 89 df             	mov    %rbx,%rdi
  40195a:	e8 f1 f3 ff ff       	callq  400d50 <strncmp@plt>
  40195f:	85 c0                	test   %eax,%eax
  401961:	0f 94 c0             	sete   %al
  401964:	0f b6 c0             	movzbl %al,%eax
  401967:	48 83 c4 70          	add    $0x70,%rsp
  40196b:	5b                   	pop    %rbx
  40196c:	5d                   	pop    %rbp
  40196d:	41 5c                	pop    %r12
  40196f:	c3                   	retq   

0000000000401970 <touch3>:
  401970:	53                   	push   %rbx
  401971:	48 89 fb             	mov    %rdi,%rbx
  401974:	c7 05 86 3b 20 00 03 	movl   $0x3,0x203b86(%rip)        # 605504 <vlevel>
  40197b:	00 00 00 
  40197e:	48 89 fe             	mov    %rdi,%rsi
  401981:	8b 3d 85 3b 20 00    	mov    0x203b85(%rip),%edi        # 60550c <cookie>
  401987:	e8 69 ff ff ff       	callq  4018f5 <hexmatch>
  40198c:	85 c0                	test   %eax,%eax
  40198e:	74 26                	je     4019b6 <touch3+0x46>
  401990:	48 89 de             	mov    %rbx,%rsi
  401993:	bf 80 32 40 00       	mov    $0x403280,%edi
  401998:	b8 00 00 00 00       	mov    $0x0,%eax
  40199d:	e8 0e f4 ff ff       	callq  400db0 <printf@plt>
  4019a2:	bf 03 00 00 00       	mov    $0x3,%edi
  4019a7:	e8 f8 03 00 00       	callq  401da4 <validate>
  4019ac:	bf 00 00 00 00       	mov    $0x0,%edi
  4019b1:	e8 6a f5 ff ff       	callq  400f20 <exit@plt>
  4019b6:	48 89 de             	mov    %rbx,%rsi
  4019b9:	bf a8 32 40 00       	mov    $0x4032a8,%edi
  4019be:	b8 00 00 00 00       	mov    $0x0,%eax
  4019c3:	e8 e8 f3 ff ff       	callq  400db0 <printf@plt>
  4019c8:	bf 03 00 00 00       	mov    $0x3,%edi
  4019cd:	e8 84 04 00 00       	callq  401e56 <fail>
  4019d2:	eb d8                	jmp    4019ac <touch3+0x3c>

00000000004019d4 <test>:
  4019d4:	48 83 ec 08          	sub    $0x8,%rsp
  4019d8:	b8 00 00 00 00       	mov    $0x0,%eax
  4019dd:	e8 7b fe ff ff       	callq  40185d <getbuf>
  4019e2:	89 c6                	mov    %eax,%esi
  4019e4:	bf d0 32 40 00       	mov    $0x4032d0,%edi
  4019e9:	b8 00 00 00 00       	mov    $0x0,%eax
  4019ee:	e8 bd f3 ff ff       	callq  400db0 <printf@plt>
  4019f3:	48 83 c4 08          	add    $0x8,%rsp
  4019f7:	c3                   	retq   

00000000004019f8 <start_farm>:
  4019f8:	b8 01 00 00 00       	mov    $0x1,%eax
  4019fd:	c3                   	retq   

00000000004019fe <addval_422>:
  4019fe:	8d 87 58 58 92 c3    	lea    -0x3c6da7a8(%rdi),%eax
  401a04:	c3                   	retq   

0000000000401a05 <addval_127>:
  401a05:	8d 87 1c 68 89 c7    	lea    -0x387697e4(%rdi),%eax
  401a0b:	c3                   	retq   

0000000000401a0c <getval_301>:
  401a0c:	b8 ee 48 89 c7       	mov    $0xc78948ee,%eax
  401a11:	c3                   	retq   

0000000000401a12 <addval_262>:
  401a12:	8d 87 58 90 90 90    	lea    -0x6f6f6fa8(%rdi),%eax
  401a18:	c3                   	retq   

0000000000401a19 <setval_286>:
  401a19:	c7 07 48 89 c7 c3    	movl   $0xc3c78948,(%rdi)
  401a1f:	c3                   	retq   

0000000000401a20 <addval_354>:
  401a20:	8d 87 48 89 c7 c1    	lea    -0x3e3876b8(%rdi),%eax
  401a26:	c3                   	retq   

0000000000401a27 <getval_352>:
  401a27:	b8 a1 48 90 c3       	mov    $0xc39048a1,%eax
  401a2c:	c3                   	retq   

0000000000401a2d <getval_183>:
  401a2d:	b8 58 90 c3 41       	mov    $0x41c39058,%eax
  401a32:	c3                   	retq   

0000000000401a33 <mid_farm>:
  401a33:	b8 01 00 00 00       	mov    $0x1,%eax
  401a38:	c3                   	retq   

0000000000401a39 <add_xy>:
  401a39:	48 8d 04 37          	lea    (%rdi,%rsi,1),%rax
  401a3d:	c3                   	retq   

0000000000401a3e <setval_264>:
  401a3e:	c7 07 89 ca 08 db    	movl   $0xdb08ca89,(%rdi)
  401a44:	c3                   	retq   

0000000000401a45 <setval_417>:
  401a45:	c7 07 9b 88 ca 90    	movl   $0x90ca889b,(%rdi)
  401a4b:	c3                   	retq   

0000000000401a4c <getval_307>:
  401a4c:	b8 49 89 e0 90       	mov    $0x90e08949,%eax
  401a51:	c3                   	retq   

0000000000401a52 <addval_237>:
  401a52:	8d 87 89 d6 38 c9    	lea    -0x36c72977(%rdi),%eax
  401a58:	c3                   	retq   

0000000000401a59 <addval_140>:
  401a59:	8d 87 89 d6 90 c2    	lea    -0x3d6f2977(%rdi),%eax
  401a5f:	c3                   	retq   

0000000000401a60 <getval_336>:
  401a60:	b8 89 d6 48 db       	mov    $0xdb48d689,%eax
  401a65:	c3                   	retq   

0000000000401a66 <setval_174>:
  401a66:	c7 07 89 c1 c4 db    	movl   $0xdbc4c189,(%rdi)
  401a6c:	c3                   	retq   

0000000000401a6d <setval_245>:
  401a6d:	c7 07 89 c1 a4 db    	movl   $0xdba4c189,(%rdi)
  401a73:	c3                   	retq   

0000000000401a74 <addval_109>:
  401a74:	8d 87 31 49 89 e0    	lea    -0x1f76b6cf(%rdi),%eax
  401a7a:	c3                   	retq   

0000000000401a7b <setval_295>:
  401a7b:	c7 07 a9 d6 08 d2    	movl   $0xd208d6a9,(%rdi)
  401a81:	c3                   	retq   

0000000000401a82 <setval_236>:
  401a82:	c7 07 c1 48 89 e0    	movl   $0xe08948c1,(%rdi)
  401a88:	c3                   	retq   

0000000000401a89 <getval_122>:
  401a89:	b8 b5 89 d6 90       	mov    $0x90d689b5,%eax
  401a8e:	c3                   	retq   

0000000000401a8f <addval_454>:
  401a8f:	8d 87 81 c1 90 c3    	lea    -0x3c6f3e7f(%rdi),%eax
  401a95:	c3                   	retq   

0000000000401a96 <setval_489>:
  401a96:	c7 07 89 c1 28 c0    	movl   $0xc028c189,(%rdi)
  401a9c:	c3                   	retq   

0000000000401a9d <getval_159>:
  401a9d:	b8 48 89 e0 94       	mov    $0x94e08948,%eax
  401aa2:	c3                   	retq   

0000000000401aa3 <setval_278>:
  401aa3:	c7 07 a9 ca 90 90    	movl   $0x9090caa9,(%rdi)
  401aa9:	c3                   	retq   

0000000000401aaa <addval_378>:
  401aaa:	8d 87 8b ca 90 90    	lea    -0x6f6f3575(%rdi),%eax
  401ab0:	c3                   	retq   

0000000000401ab1 <getval_463>:
  401ab1:	b8 89 c1 08 db       	mov    $0xdb08c189,%eax
  401ab6:	c3                   	retq   

0000000000401ab7 <getval_371>:
  401ab7:	b8 89 c1 20 d2       	mov    $0xd220c189,%eax
  401abc:	c3                   	retq   

0000000000401abd <addval_261>:
  401abd:	8d 87 48 89 e0 c3    	lea    -0x3c1f76b8(%rdi),%eax
  401ac3:	c3                   	retq   

0000000000401ac4 <setval_105>:
  401ac4:	c7 07 48 89 e0 91    	movl   $0x91e08948,(%rdi)
  401aca:	c3                   	retq   

0000000000401acb <getval_435>:
  401acb:	b8 8b d6 08 db       	mov    $0xdb08d68b,%eax
  401ad0:	c3                   	retq   

0000000000401ad1 <getval_172>:
  401ad1:	b8 89 c1 78 d2       	mov    $0xd278c189,%eax
  401ad6:	c3                   	retq   

0000000000401ad7 <setval_212>:
  401ad7:	c7 07 89 d6 18 db    	movl   $0xdb18d689,(%rdi)
  401add:	c3                   	retq   

0000000000401ade <setval_437>:
  401ade:	c7 07 89 ca 38 c0    	movl   $0xc038ca89,(%rdi)
  401ae4:	c3                   	retq   

0000000000401ae5 <getval_413>:
  401ae5:	b8 09 d6 08 c0       	mov    $0xc008d609,%eax
  401aea:	c3                   	retq   

0000000000401aeb <addval_244>:
  401aeb:	8d 87 03 89 c1 c2    	lea    -0x3d3e76fd(%rdi),%eax
  401af1:	c3                   	retq   

0000000000401af2 <getval_479>:
  401af2:	b8 f9 48 8b e0       	mov    $0xe08b48f9,%eax
  401af7:	c3                   	retq   

0000000000401af8 <setval_165>:
  401af8:	c7 07 53 99 ca c3    	movl   $0xc3ca9953,(%rdi)
  401afe:	c3                   	retq   

0000000000401aff <getval_274>:
  401aff:	b8 32 48 c9 e0       	mov    $0xe0c94832,%eax
  401b04:	c3                   	retq   

0000000000401b05 <getval_223>:
  401b05:	b8 99 ca 38 d2       	mov    $0xd238ca99,%eax
  401b0a:	c3                   	retq   

0000000000401b0b <addval_308>:
  401b0b:	8d 87 89 ca 00 d2    	lea    -0x2dff3577(%rdi),%eax
  401b11:	c3                   	retq   

0000000000401b12 <end_farm>:
  401b12:	b8 01 00 00 00       	mov    $0x1,%eax
  401b17:	c3                   	retq   

0000000000401b18 <save_char>:
  401b18:	8b 05 06 46 20 00    	mov    0x204606(%rip),%eax        # 606124 <gets_cnt>
  401b1e:	3d ff 03 00 00       	cmp    $0x3ff,%eax
  401b23:	7f 49                	jg     401b6e <save_char+0x56>
  401b25:	89 f9                	mov    %edi,%ecx
  401b27:	c0 e9 04             	shr    $0x4,%cl
  401b2a:	8d 14 40             	lea    (%rax,%rax,2),%edx
  401b2d:	83 e1 0f             	and    $0xf,%ecx
  401b30:	0f b6 b1 f0 35 40 00 	movzbl 0x4035f0(%rcx),%esi
  401b37:	48 63 ca             	movslq %edx,%rcx
  401b3a:	40 88 b1 20 55 60 00 	mov    %sil,0x605520(%rcx)
  401b41:	8d 4a 01             	lea    0x1(%rdx),%ecx
  401b44:	83 e7 0f             	and    $0xf,%edi
  401b47:	0f b6 b7 f0 35 40 00 	movzbl 0x4035f0(%rdi),%esi
  401b4e:	48 63 c9             	movslq %ecx,%rcx
  401b51:	40 88 b1 20 55 60 00 	mov    %sil,0x605520(%rcx)
  401b58:	83 c2 02             	add    $0x2,%edx
  401b5b:	48 63 d2             	movslq %edx,%rdx
  401b5e:	c6 82 20 55 60 00 20 	movb   $0x20,0x605520(%rdx)
  401b65:	83 c0 01             	add    $0x1,%eax
  401b68:	89 05 b6 45 20 00    	mov    %eax,0x2045b6(%rip)        # 606124 <gets_cnt>
  401b6e:	c3                   	retq   

0000000000401b6f <save_term>:
  401b6f:	8b 05 af 45 20 00    	mov    0x2045af(%rip),%eax        # 606124 <gets_cnt>
  401b75:	8d 04 40             	lea    (%rax,%rax,2),%eax
  401b78:	48 98                	cltq   
  401b7a:	c6 80 20 55 60 00 00 	movb   $0x0,0x605520(%rax)
  401b81:	c3                   	retq   

0000000000401b82 <check_fail>:
  401b82:	48 83 ec 08          	sub    $0x8,%rsp
  401b86:	0f be 35 c3 35 20 00 	movsbl 0x2035c3(%rip),%esi        # 605150 <target_prefix>
  401b8d:	b9 20 55 60 00       	mov    $0x605520,%ecx
  401b92:	8b 15 68 39 20 00    	mov    0x203968(%rip),%edx        # 605500 <check_level>
  401b98:	bf f3 32 40 00       	mov    $0x4032f3,%edi
  401b9d:	b8 00 00 00 00       	mov    $0x0,%eax
  401ba2:	e8 09 f2 ff ff       	callq  400db0 <printf@plt>
  401ba7:	bf 01 00 00 00       	mov    $0x1,%edi
  401bac:	e8 6f f3 ff ff       	callq  400f20 <exit@plt>

0000000000401bb1 <Gets>:
  401bb1:	41 54                	push   %r12
  401bb3:	55                   	push   %rbp
  401bb4:	53                   	push   %rbx
  401bb5:	49 89 fc             	mov    %rdi,%r12
  401bb8:	c7 05 62 45 20 00 00 	movl   $0x0,0x204562(%rip)        # 606124 <gets_cnt>
  401bbf:	00 00 00 
  401bc2:	48 89 fb             	mov    %rdi,%rbx
  401bc5:	eb 11                	jmp    401bd8 <Gets+0x27>
  401bc7:	48 8d 6b 01          	lea    0x1(%rbx),%rbp
  401bcb:	88 03                	mov    %al,(%rbx)
  401bcd:	0f b6 f8             	movzbl %al,%edi
  401bd0:	e8 43 ff ff ff       	callq  401b18 <save_char>
  401bd5:	48 89 eb             	mov    %rbp,%rbx
  401bd8:	48 8b 3d 19 39 20 00 	mov    0x203919(%rip),%rdi        # 6054f8 <infile>
  401bdf:	e8 ac f2 ff ff       	callq  400e90 <_IO_getc@plt>
  401be4:	83 f8 ff             	cmp    $0xffffffff,%eax
  401be7:	74 05                	je     401bee <Gets+0x3d>
  401be9:	83 f8 0a             	cmp    $0xa,%eax
  401bec:	75 d9                	jne    401bc7 <Gets+0x16>
  401bee:	c6 03 00             	movb   $0x0,(%rbx)
  401bf1:	b8 00 00 00 00       	mov    $0x0,%eax
  401bf6:	e8 74 ff ff ff       	callq  401b6f <save_term>
  401bfb:	4c 89 e0             	mov    %r12,%rax
  401bfe:	5b                   	pop    %rbx
  401bff:	5d                   	pop    %rbp
  401c00:	41 5c                	pop    %r12
  401c02:	c3                   	retq   

0000000000401c03 <notify_server>:
  401c03:	83 3d 06 39 20 00 00 	cmpl   $0x0,0x203906(%rip)        # 605510 <is_checker>
  401c0a:	0f 85 93 01 00 00    	jne    401da3 <notify_server+0x1a0>
  401c10:	55                   	push   %rbp
  401c11:	53                   	push   %rbx
  401c12:	48 81 ec 08 40 00 00 	sub    $0x4008,%rsp
  401c19:	89 fb                	mov    %edi,%ebx
  401c1b:	81 3d ff 44 20 00 9c 	cmpl   $0x1f9c,0x2044ff(%rip)        # 606124 <gets_cnt>
  401c22:	1f 00 00 
  401c25:	0f 8f ad 00 00 00    	jg     401cd8 <notify_server+0xd5>
  401c2b:	44 0f be 0d 1d 35 20 	movsbl 0x20351d(%rip),%r9d        # 605150 <target_prefix>
  401c32:	00 
  401c33:	83 3d 6e 38 20 00 00 	cmpl   $0x0,0x20386e(%rip)        # 6054a8 <notify>
  401c3a:	0f 84 b1 00 00 00    	je     401cf1 <notify_server+0xee>
  401c40:	44 8b 05 c1 38 20 00 	mov    0x2038c1(%rip),%r8d        # 605508 <authkey>
  401c47:	85 db                	test   %ebx,%ebx
  401c49:	0f 84 ad 00 00 00    	je     401cfc <notify_server+0xf9>
  401c4f:	bd 0e 33 40 00       	mov    $0x40330e,%ebp
  401c54:	68 20 55 60 00       	pushq  $0x605520
  401c59:	56                   	push   %rsi
  401c5a:	48 89 e9             	mov    %rbp,%rcx
  401c5d:	8b 15 05 35 20 00    	mov    0x203505(%rip),%edx        # 605168 <target_id>
  401c63:	be 13 33 40 00       	mov    $0x403313,%esi
  401c68:	48 8d bc 24 10 20 00 	lea    0x2010(%rsp),%rdi
  401c6f:	00 
  401c70:	b8 00 00 00 00       	mov    $0x0,%eax
  401c75:	e8 96 f2 ff ff       	callq  400f10 <sprintf@plt>
  401c7a:	48 83 c4 10          	add    $0x10,%rsp
  401c7e:	83 3d 23 38 20 00 00 	cmpl   $0x0,0x203823(%rip)        # 6054a8 <notify>
  401c85:	0f 84 ab 00 00 00    	je     401d36 <notify_server+0x133>
  401c8b:	85 db                	test   %ebx,%ebx
  401c8d:	0f 84 8f 00 00 00    	je     401d22 <notify_server+0x11f>
  401c93:	49 89 e1             	mov    %rsp,%r9
  401c96:	41 b8 00 00 00 00    	mov    $0x0,%r8d
  401c9c:	48 8d 8c 24 00 20 00 	lea    0x2000(%rsp),%rcx
  401ca3:	00 
  401ca4:	48 8b 15 c5 34 20 00 	mov    0x2034c5(%rip),%rdx        # 605170 <lab>
  401cab:	48 8b 35 ee 37 20 00 	mov    0x2037ee(%rip),%rsi        # 6054a0 <course>
  401cb2:	48 8b 3d a7 34 20 00 	mov    0x2034a7(%rip),%rdi        # 605160 <user_id>
  401cb9:	e8 f4 0f 00 00       	callq  402cb2 <driver_post>
  401cbe:	85 c0                	test   %eax,%eax
  401cc0:	78 44                	js     401d06 <notify_server+0x103>
  401cc2:	bf 58 34 40 00       	mov    $0x403458,%edi
  401cc7:	e8 a4 f0 ff ff       	callq  400d70 <puts@plt>
  401ccc:	bf 3b 33 40 00       	mov    $0x40333b,%edi
  401cd1:	e8 9a f0 ff ff       	callq  400d70 <puts@plt>
  401cd6:	eb 54                	jmp    401d2c <notify_server+0x129>
  401cd8:	bf 28 34 40 00       	mov    $0x403428,%edi
  401cdd:	b8 00 00 00 00       	mov    $0x0,%eax
  401ce2:	e8 c9 f0 ff ff       	callq  400db0 <printf@plt>
  401ce7:	bf 01 00 00 00       	mov    $0x1,%edi
  401cec:	e8 2f f2 ff ff       	callq  400f20 <exit@plt>
  401cf1:	41 b8 ff ff ff ff    	mov    $0xffffffff,%r8d
  401cf7:	e9 4b ff ff ff       	jmpq   401c47 <notify_server+0x44>
  401cfc:	bd 09 33 40 00       	mov    $0x403309,%ebp
  401d01:	e9 4e ff ff ff       	jmpq   401c54 <notify_server+0x51>
  401d06:	48 89 e6             	mov    %rsp,%rsi
  401d09:	bf 2f 33 40 00       	mov    $0x40332f,%edi
  401d0e:	b8 00 00 00 00       	mov    $0x0,%eax
  401d13:	e8 98 f0 ff ff       	callq  400db0 <printf@plt>
  401d18:	bf 01 00 00 00       	mov    $0x1,%edi
  401d1d:	e8 fe f1 ff ff       	callq  400f20 <exit@plt>
  401d22:	bf 45 33 40 00       	mov    $0x403345,%edi
  401d27:	e8 44 f0 ff ff       	callq  400d70 <puts@plt>
  401d2c:	48 81 c4 08 40 00 00 	add    $0x4008,%rsp
  401d33:	5b                   	pop    %rbx
  401d34:	5d                   	pop    %rbp
  401d35:	c3                   	retq   
  401d36:	48 89 ee             	mov    %rbp,%rsi
  401d39:	bf 90 34 40 00       	mov    $0x403490,%edi
  401d3e:	b8 00 00 00 00       	mov    $0x0,%eax
  401d43:	e8 68 f0 ff ff       	callq  400db0 <printf@plt>
  401d48:	48 8b 35 11 34 20 00 	mov    0x203411(%rip),%rsi        # 605160 <user_id>
  401d4f:	bf 4c 33 40 00       	mov    $0x40334c,%edi
  401d54:	b8 00 00 00 00       	mov    $0x0,%eax
  401d59:	e8 52 f0 ff ff       	callq  400db0 <printf@plt>
  401d5e:	48 8b 35 3b 37 20 00 	mov    0x20373b(%rip),%rsi        # 6054a0 <course>
  401d65:	bf 59 33 40 00       	mov    $0x403359,%edi
  401d6a:	b8 00 00 00 00       	mov    $0x0,%eax
  401d6f:	e8 3c f0 ff ff       	callq  400db0 <printf@plt>
  401d74:	48 8b 35 f5 33 20 00 	mov    0x2033f5(%rip),%rsi        # 605170 <lab>
  401d7b:	bf 65 33 40 00       	mov    $0x403365,%edi
  401d80:	b8 00 00 00 00       	mov    $0x0,%eax
  401d85:	e8 26 f0 ff ff       	callq  400db0 <printf@plt>
  401d8a:	48 8d b4 24 00 20 00 	lea    0x2000(%rsp),%rsi
  401d91:	00 
  401d92:	bf 6e 33 40 00       	mov    $0x40336e,%edi
  401d97:	b8 00 00 00 00       	mov    $0x0,%eax
  401d9c:	e8 0f f0 ff ff       	callq  400db0 <printf@plt>
  401da1:	eb 89                	jmp    401d2c <notify_server+0x129>
  401da3:	c3                   	retq   

0000000000401da4 <validate>:
  401da4:	53                   	push   %rbx
  401da5:	89 fb                	mov    %edi,%ebx
  401da7:	83 3d 62 37 20 00 00 	cmpl   $0x0,0x203762(%rip)        # 605510 <is_checker>
  401dae:	74 60                	je     401e10 <validate+0x6c>
  401db0:	39 3d 4e 37 20 00    	cmp    %edi,0x20374e(%rip)        # 605504 <vlevel>
  401db6:	75 29                	jne    401de1 <validate+0x3d>
  401db8:	8b 35 42 37 20 00    	mov    0x203742(%rip),%esi        # 605500 <check_level>
  401dbe:	39 fe                	cmp    %edi,%esi
  401dc0:	75 33                	jne    401df5 <validate+0x51>
  401dc2:	0f be 35 87 33 20 00 	movsbl 0x203387(%rip),%esi        # 605150 <target_prefix>
  401dc9:	b9 20 55 60 00       	mov    $0x605520,%ecx
  401dce:	89 fa                	mov    %edi,%edx
  401dd0:	bf 98 33 40 00       	mov    $0x403398,%edi
  401dd5:	b8 00 00 00 00       	mov    $0x0,%eax
  401dda:	e8 d1 ef ff ff       	callq  400db0 <printf@plt>
  401ddf:	5b                   	pop    %rbx
  401de0:	c3                   	retq   
  401de1:	bf 7a 33 40 00       	mov    $0x40337a,%edi
  401de6:	e8 85 ef ff ff       	callq  400d70 <puts@plt>
  401deb:	b8 00 00 00 00       	mov    $0x0,%eax
  401df0:	e8 8d fd ff ff       	callq  401b82 <check_fail>
  401df5:	89 fa                	mov    %edi,%edx
  401df7:	bf b8 34 40 00       	mov    $0x4034b8,%edi
  401dfc:	b8 00 00 00 00       	mov    $0x0,%eax
  401e01:	e8 aa ef ff ff       	callq  400db0 <printf@plt>
  401e06:	b8 00 00 00 00       	mov    $0x0,%eax
  401e0b:	e8 72 fd ff ff       	callq  401b82 <check_fail>
  401e10:	39 3d ee 36 20 00    	cmp    %edi,0x2036ee(%rip)        # 605504 <vlevel>
  401e16:	74 18                	je     401e30 <validate+0x8c>
  401e18:	bf 7a 33 40 00       	mov    $0x40337a,%edi
  401e1d:	e8 4e ef ff ff       	callq  400d70 <puts@plt>
  401e22:	89 de                	mov    %ebx,%esi
  401e24:	bf 00 00 00 00       	mov    $0x0,%edi
  401e29:	e8 d5 fd ff ff       	callq  401c03 <notify_server>
  401e2e:	eb af                	jmp    401ddf <validate+0x3b>
  401e30:	0f be 15 19 33 20 00 	movsbl 0x203319(%rip),%edx        # 605150 <target_prefix>
  401e37:	89 fe                	mov    %edi,%esi
  401e39:	bf e0 34 40 00       	mov    $0x4034e0,%edi
  401e3e:	b8 00 00 00 00       	mov    $0x0,%eax
  401e43:	e8 68 ef ff ff       	callq  400db0 <printf@plt>
  401e48:	89 de                	mov    %ebx,%esi
  401e4a:	bf 01 00 00 00       	mov    $0x1,%edi
  401e4f:	e8 af fd ff ff       	callq  401c03 <notify_server>
  401e54:	eb 89                	jmp    401ddf <validate+0x3b>

0000000000401e56 <fail>:
  401e56:	48 83 ec 08          	sub    $0x8,%rsp
  401e5a:	83 3d af 36 20 00 00 	cmpl   $0x0,0x2036af(%rip)        # 605510 <is_checker>
  401e61:	75 11                	jne    401e74 <fail+0x1e>
  401e63:	89 fe                	mov    %edi,%esi
  401e65:	bf 00 00 00 00       	mov    $0x0,%edi
  401e6a:	e8 94 fd ff ff       	callq  401c03 <notify_server>
  401e6f:	48 83 c4 08          	add    $0x8,%rsp
  401e73:	c3                   	retq   
  401e74:	b8 00 00 00 00       	mov    $0x0,%eax
  401e79:	e8 04 fd ff ff       	callq  401b82 <check_fail>

0000000000401e7e <bushandler>:
  401e7e:	48 83 ec 08          	sub    $0x8,%rsp
  401e82:	83 3d 87 36 20 00 00 	cmpl   $0x0,0x203687(%rip)        # 605510 <is_checker>
  401e89:	74 14                	je     401e9f <bushandler+0x21>
  401e8b:	bf ad 33 40 00       	mov    $0x4033ad,%edi
  401e90:	e8 db ee ff ff       	callq  400d70 <puts@plt>
  401e95:	b8 00 00 00 00       	mov    $0x0,%eax
  401e9a:	e8 e3 fc ff ff       	callq  401b82 <check_fail>
  401e9f:	bf 18 35 40 00       	mov    $0x403518,%edi
  401ea4:	e8 c7 ee ff ff       	callq  400d70 <puts@plt>
  401ea9:	bf b7 33 40 00       	mov    $0x4033b7,%edi
  401eae:	e8 bd ee ff ff       	callq  400d70 <puts@plt>
  401eb3:	be 00 00 00 00       	mov    $0x0,%esi
  401eb8:	bf 00 00 00 00       	mov    $0x0,%edi
  401ebd:	e8 41 fd ff ff       	callq  401c03 <notify_server>
  401ec2:	bf 01 00 00 00       	mov    $0x1,%edi
  401ec7:	e8 54 f0 ff ff       	callq  400f20 <exit@plt>

0000000000401ecc <seghandler>:
  401ecc:	48 83 ec 08          	sub    $0x8,%rsp
  401ed0:	83 3d 39 36 20 00 00 	cmpl   $0x0,0x203639(%rip)        # 605510 <is_checker>
  401ed7:	74 14                	je     401eed <seghandler+0x21>
  401ed9:	bf cd 33 40 00       	mov    $0x4033cd,%edi
  401ede:	e8 8d ee ff ff       	callq  400d70 <puts@plt>
  401ee3:	b8 00 00 00 00       	mov    $0x0,%eax
  401ee8:	e8 95 fc ff ff       	callq  401b82 <check_fail>
  401eed:	bf 38 35 40 00       	mov    $0x403538,%edi
  401ef2:	e8 79 ee ff ff       	callq  400d70 <puts@plt>
  401ef7:	bf b7 33 40 00       	mov    $0x4033b7,%edi
  401efc:	e8 6f ee ff ff       	callq  400d70 <puts@plt>
  401f01:	be 00 00 00 00       	mov    $0x0,%esi
  401f06:	bf 00 00 00 00       	mov    $0x0,%edi
  401f0b:	e8 f3 fc ff ff       	callq  401c03 <notify_server>
  401f10:	bf 01 00 00 00       	mov    $0x1,%edi
  401f15:	e8 06 f0 ff ff       	callq  400f20 <exit@plt>

0000000000401f1a <illegalhandler>:
  401f1a:	48 83 ec 08          	sub    $0x8,%rsp
  401f1e:	83 3d eb 35 20 00 00 	cmpl   $0x0,0x2035eb(%rip)        # 605510 <is_checker>
  401f25:	74 14                	je     401f3b <illegalhandler+0x21>
  401f27:	bf e0 33 40 00       	mov    $0x4033e0,%edi
  401f2c:	e8 3f ee ff ff       	callq  400d70 <puts@plt>
  401f31:	b8 00 00 00 00       	mov    $0x0,%eax
  401f36:	e8 47 fc ff ff       	callq  401b82 <check_fail>
  401f3b:	bf 60 35 40 00       	mov    $0x403560,%edi
  401f40:	e8 2b ee ff ff       	callq  400d70 <puts@plt>
  401f45:	bf b7 33 40 00       	mov    $0x4033b7,%edi
  401f4a:	e8 21 ee ff ff       	callq  400d70 <puts@plt>
  401f4f:	be 00 00 00 00       	mov    $0x0,%esi
  401f54:	bf 00 00 00 00       	mov    $0x0,%edi
  401f59:	e8 a5 fc ff ff       	callq  401c03 <notify_server>
  401f5e:	bf 01 00 00 00       	mov    $0x1,%edi
  401f63:	e8 b8 ef ff ff       	callq  400f20 <exit@plt>

0000000000401f68 <sigalrmhandler>:
  401f68:	48 83 ec 08          	sub    $0x8,%rsp
  401f6c:	83 3d 9d 35 20 00 00 	cmpl   $0x0,0x20359d(%rip)        # 605510 <is_checker>
  401f73:	74 14                	je     401f89 <sigalrmhandler+0x21>
  401f75:	bf f4 33 40 00       	mov    $0x4033f4,%edi
  401f7a:	e8 f1 ed ff ff       	callq  400d70 <puts@plt>
  401f7f:	b8 00 00 00 00       	mov    $0x0,%eax
  401f84:	e8 f9 fb ff ff       	callq  401b82 <check_fail>
  401f89:	be 05 00 00 00       	mov    $0x5,%esi
  401f8e:	bf 90 35 40 00       	mov    $0x403590,%edi
  401f93:	b8 00 00 00 00       	mov    $0x0,%eax
  401f98:	e8 13 ee ff ff       	callq  400db0 <printf@plt>
  401f9d:	be 00 00 00 00       	mov    $0x0,%esi
  401fa2:	bf 00 00 00 00       	mov    $0x0,%edi
  401fa7:	e8 57 fc ff ff       	callq  401c03 <notify_server>
  401fac:	bf 01 00 00 00       	mov    $0x1,%edi
  401fb1:	e8 6a ef ff ff       	callq  400f20 <exit@plt>

0000000000401fb6 <launch>:
  401fb6:	55                   	push   %rbp
  401fb7:	48 89 e5             	mov    %rsp,%rbp
  401fba:	48 89 fa             	mov    %rdi,%rdx
  401fbd:	48 8d 47 17          	lea    0x17(%rdi),%rax
  401fc1:	48 83 e0 f0          	and    $0xfffffffffffffff0,%rax
  401fc5:	48 29 c4             	sub    %rax,%rsp
  401fc8:	48 8d 7c 24 0f       	lea    0xf(%rsp),%rdi
  401fcd:	48 83 e7 f0          	and    $0xfffffffffffffff0,%rdi
  401fd1:	be f4 00 00 00       	mov    $0xf4,%esi
  401fd6:	e8 e5 ed ff ff       	callq  400dc0 <memset@plt>
  401fdb:	48 8b 05 de 34 20 00 	mov    0x2034de(%rip),%rax        # 6054c0 <stdin@@GLIBC_2.2.5>
  401fe2:	48 39 05 0f 35 20 00 	cmp    %rax,0x20350f(%rip)        # 6054f8 <infile>
  401fe9:	74 29                	je     402014 <launch+0x5e>
  401feb:	c7 05 0f 35 20 00 00 	movl   $0x0,0x20350f(%rip)        # 605504 <vlevel>
  401ff2:	00 00 00 
  401ff5:	b8 00 00 00 00       	mov    $0x0,%eax
  401ffa:	e8 d5 f9 ff ff       	callq  4019d4 <test>
  401fff:	83 3d 0a 35 20 00 00 	cmpl   $0x0,0x20350a(%rip)        # 605510 <is_checker>
  402006:	75 1d                	jne    402025 <launch+0x6f>
  402008:	bf 14 34 40 00       	mov    $0x403414,%edi
  40200d:	e8 5e ed ff ff       	callq  400d70 <puts@plt>
  402012:	c9                   	leaveq 
  402013:	c3                   	retq   
  402014:	bf fc 33 40 00       	mov    $0x4033fc,%edi
  402019:	b8 00 00 00 00       	mov    $0x0,%eax
  40201e:	e8 8d ed ff ff       	callq  400db0 <printf@plt>
  402023:	eb c6                	jmp    401feb <launch+0x35>
  402025:	bf 09 34 40 00       	mov    $0x403409,%edi
  40202a:	e8 41 ed ff ff       	callq  400d70 <puts@plt>
  40202f:	b8 00 00 00 00       	mov    $0x0,%eax
  402034:	e8 49 fb ff ff       	callq  401b82 <check_fail>

0000000000402039 <stable_launch>:
  402039:	53                   	push   %rbx
  40203a:	48 89 3d af 34 20 00 	mov    %rdi,0x2034af(%rip)        # 6054f0 <global_offset>
  402041:	41 b9 00 00 00 00    	mov    $0x0,%r9d
  402047:	41 b8 00 00 00 00    	mov    $0x0,%r8d
  40204d:	b9 32 01 00 00       	mov    $0x132,%ecx
  402052:	ba 07 00 00 00       	mov    $0x7,%edx
  402057:	be 00 00 10 00       	mov    $0x100000,%esi
  40205c:	bf 00 60 58 55       	mov    $0x55586000,%edi
  402061:	e8 3a ed ff ff       	callq  400da0 <mmap@plt>
  402066:	48 89 c3             	mov    %rax,%rbx
  402069:	48 3d 00 60 58 55    	cmp    $0x55586000,%rax
  40206f:	75 43                	jne    4020b4 <stable_launch+0x7b>
  402071:	48 8d 90 f8 ff 0f 00 	lea    0xffff8(%rax),%rdx
  402078:	48 89 15 69 34 20 00 	mov    %rdx,0x203469(%rip)        # 6054e8 <stack_top>
  40207f:	48 89 e0             	mov    %rsp,%rax
  402082:	48 89 d4             	mov    %rdx,%rsp
  402085:	48 89 c2             	mov    %rax,%rdx
  402088:	48 89 15 51 34 20 00 	mov    %rdx,0x203451(%rip)        # 6054e0 <global_save_stack>
  40208f:	48 8b 3d 5a 34 20 00 	mov    0x20345a(%rip),%rdi        # 6054f0 <global_offset>
  402096:	e8 1b ff ff ff       	callq  401fb6 <launch>
  40209b:	48 8b 05 3e 34 20 00 	mov    0x20343e(%rip),%rax        # 6054e0 <global_save_stack>
  4020a2:	48 89 c4             	mov    %rax,%rsp
  4020a5:	be 00 00 10 00       	mov    $0x100000,%esi
  4020aa:	48 89 df             	mov    %rbx,%rdi
  4020ad:	e8 fe ed ff ff       	callq  400eb0 <munmap@plt>
  4020b2:	5b                   	pop    %rbx
  4020b3:	c3                   	retq   
  4020b4:	be 00 00 10 00       	mov    $0x100000,%esi
  4020b9:	48 89 c7             	mov    %rax,%rdi
  4020bc:	e8 ef ed ff ff       	callq  400eb0 <munmap@plt>
  4020c1:	ba 00 60 58 55       	mov    $0x55586000,%edx
  4020c6:	be c8 35 40 00       	mov    $0x4035c8,%esi
  4020cb:	48 8b 3d fe 33 20 00 	mov    0x2033fe(%rip),%rdi        # 6054d0 <stderr@@GLIBC_2.2.5>
  4020d2:	b8 00 00 00 00       	mov    $0x0,%eax
  4020d7:	e8 54 ed ff ff       	callq  400e30 <fprintf@plt>
  4020dc:	bf 01 00 00 00       	mov    $0x1,%edi
  4020e1:	e8 3a ee ff ff       	callq  400f20 <exit@plt>

00000000004020e6 <rio_readinitb>:
  4020e6:	89 37                	mov    %esi,(%rdi)
  4020e8:	c7 47 04 00 00 00 00 	movl   $0x0,0x4(%rdi)
  4020ef:	48 8d 47 10          	lea    0x10(%rdi),%rax
  4020f3:	48 89 47 08          	mov    %rax,0x8(%rdi)
  4020f7:	c3                   	retq   

00000000004020f8 <sigalrm_handler>:
  4020f8:	48 83 ec 08          	sub    $0x8,%rsp
  4020fc:	ba 00 00 00 00       	mov    $0x0,%edx
  402101:	be 00 36 40 00       	mov    $0x403600,%esi
  402106:	48 8b 3d c3 33 20 00 	mov    0x2033c3(%rip),%rdi        # 6054d0 <stderr@@GLIBC_2.2.5>
  40210d:	b8 00 00 00 00       	mov    $0x0,%eax
  402112:	e8 19 ed ff ff       	callq  400e30 <fprintf@plt>
  402117:	bf 01 00 00 00       	mov    $0x1,%edi
  40211c:	e8 ff ed ff ff       	callq  400f20 <exit@plt>

0000000000402121 <urlencode>:
  402121:	41 54                	push   %r12
  402123:	55                   	push   %rbp
  402124:	53                   	push   %rbx
  402125:	48 83 ec 10          	sub    $0x10,%rsp
  402129:	48 89 fb             	mov    %rdi,%rbx
  40212c:	48 89 f5             	mov    %rsi,%rbp
  40212f:	e8 5c ec ff ff       	callq  400d90 <strlen@plt>
  402134:	eb 0e                	jmp    402144 <urlencode+0x23>
  402136:	88 55 00             	mov    %dl,0x0(%rbp)
  402139:	48 8d 6d 01          	lea    0x1(%rbp),%rbp
  40213d:	48 83 c3 01          	add    $0x1,%rbx
  402141:	44 89 e0             	mov    %r12d,%eax
  402144:	44 8d 60 ff          	lea    -0x1(%rax),%r12d
  402148:	85 c0                	test   %eax,%eax
  40214a:	0f 84 93 00 00 00    	je     4021e3 <urlencode+0xc2>
  402150:	0f b6 13             	movzbl (%rbx),%edx
  402153:	80 fa 2a             	cmp    $0x2a,%dl
  402156:	0f 94 c1             	sete   %cl
  402159:	80 fa 2d             	cmp    $0x2d,%dl
  40215c:	0f 94 c0             	sete   %al
  40215f:	08 c1                	or     %al,%cl
  402161:	75 d3                	jne    402136 <urlencode+0x15>
  402163:	80 fa 2e             	cmp    $0x2e,%dl
  402166:	74 ce                	je     402136 <urlencode+0x15>
  402168:	80 fa 5f             	cmp    $0x5f,%dl
  40216b:	74 c9                	je     402136 <urlencode+0x15>
  40216d:	8d 42 d0             	lea    -0x30(%rdx),%eax
  402170:	3c 09                	cmp    $0x9,%al
  402172:	76 c2                	jbe    402136 <urlencode+0x15>
  402174:	8d 42 bf             	lea    -0x41(%rdx),%eax
  402177:	3c 19                	cmp    $0x19,%al
  402179:	76 bb                	jbe    402136 <urlencode+0x15>
  40217b:	8d 42 9f             	lea    -0x61(%rdx),%eax
  40217e:	3c 19                	cmp    $0x19,%al
  402180:	76 b4                	jbe    402136 <urlencode+0x15>
  402182:	80 fa 20             	cmp    $0x20,%dl
  402185:	74 4a                	je     4021d1 <urlencode+0xb0>
  402187:	8d 42 e0             	lea    -0x20(%rdx),%eax
  40218a:	3c 5f                	cmp    $0x5f,%al
  40218c:	0f 96 c1             	setbe  %cl
  40218f:	80 fa 09             	cmp    $0x9,%dl
  402192:	0f 94 c0             	sete   %al
  402195:	08 c1                	or     %al,%cl
  402197:	74 45                	je     4021de <urlencode+0xbd>
  402199:	0f b6 d2             	movzbl %dl,%edx
  40219c:	be 98 36 40 00       	mov    $0x403698,%esi
  4021a1:	48 8d 7c 24 08       	lea    0x8(%rsp),%rdi
  4021a6:	b8 00 00 00 00       	mov    $0x0,%eax
  4021ab:	e8 60 ed ff ff       	callq  400f10 <sprintf@plt>
  4021b0:	0f b6 44 24 08       	movzbl 0x8(%rsp),%eax
  4021b5:	88 45 00             	mov    %al,0x0(%rbp)
  4021b8:	0f b6 44 24 09       	movzbl 0x9(%rsp),%eax
  4021bd:	88 45 01             	mov    %al,0x1(%rbp)
  4021c0:	0f b6 44 24 0a       	movzbl 0xa(%rsp),%eax
  4021c5:	88 45 02             	mov    %al,0x2(%rbp)
  4021c8:	48 8d 6d 03          	lea    0x3(%rbp),%rbp
  4021cc:	e9 6c ff ff ff       	jmpq   40213d <urlencode+0x1c>
  4021d1:	c6 45 00 2b          	movb   $0x2b,0x0(%rbp)
  4021d5:	48 8d 6d 01          	lea    0x1(%rbp),%rbp
  4021d9:	e9 5f ff ff ff       	jmpq   40213d <urlencode+0x1c>
  4021de:	b8 ff ff ff ff       	mov    $0xffffffff,%eax
  4021e3:	48 83 c4 10          	add    $0x10,%rsp
  4021e7:	5b                   	pop    %rbx
  4021e8:	5d                   	pop    %rbp
  4021e9:	41 5c                	pop    %r12
  4021eb:	c3                   	retq   

00000000004021ec <rio_writen>:
  4021ec:	41 55                	push   %r13
  4021ee:	41 54                	push   %r12
  4021f0:	55                   	push   %rbp
  4021f1:	53                   	push   %rbx
  4021f2:	48 83 ec 08          	sub    $0x8,%rsp
  4021f6:	41 89 fc             	mov    %edi,%r12d
  4021f9:	48 89 f5             	mov    %rsi,%rbp
  4021fc:	49 89 d5             	mov    %rdx,%r13
  4021ff:	48 89 d3             	mov    %rdx,%rbx
  402202:	eb 06                	jmp    40220a <rio_writen+0x1e>
  402204:	48 29 c3             	sub    %rax,%rbx
  402207:	48 01 c5             	add    %rax,%rbp
  40220a:	48 85 db             	test   %rbx,%rbx
  40220d:	74 24                	je     402233 <rio_writen+0x47>
  40220f:	48 89 da             	mov    %rbx,%rdx
  402212:	48 89 ee             	mov    %rbp,%rsi
  402215:	44 89 e7             	mov    %r12d,%edi
  402218:	e8 63 eb ff ff       	callq  400d80 <write@plt>
  40221d:	48 85 c0             	test   %rax,%rax
  402220:	7f e2                	jg     402204 <rio_writen+0x18>
  402222:	e8 09 eb ff ff       	callq  400d30 <__errno_location@plt>
  402227:	83 38 04             	cmpl   $0x4,(%rax)
  40222a:	75 15                	jne    402241 <rio_writen+0x55>
  40222c:	b8 00 00 00 00       	mov    $0x0,%eax
  402231:	eb d1                	jmp    402204 <rio_writen+0x18>
  402233:	4c 89 e8             	mov    %r13,%rax
  402236:	48 83 c4 08          	add    $0x8,%rsp
  40223a:	5b                   	pop    %rbx
  40223b:	5d                   	pop    %rbp
  40223c:	41 5c                	pop    %r12
  40223e:	41 5d                	pop    %r13
  402240:	c3                   	retq   
  402241:	48 c7 c0 ff ff ff ff 	mov    $0xffffffffffffffff,%rax
  402248:	eb ec                	jmp    402236 <rio_writen+0x4a>

000000000040224a <rio_read>:
  40224a:	41 55                	push   %r13
  40224c:	41 54                	push   %r12
  40224e:	55                   	push   %rbp
  40224f:	53                   	push   %rbx
  402250:	48 83 ec 08          	sub    $0x8,%rsp
  402254:	48 89 fb             	mov    %rdi,%rbx
  402257:	49 89 f5             	mov    %rsi,%r13
  40225a:	49 89 d4             	mov    %rdx,%r12
  40225d:	eb 0a                	jmp    402269 <rio_read+0x1f>
  40225f:	e8 cc ea ff ff       	callq  400d30 <__errno_location@plt>
  402264:	83 38 04             	cmpl   $0x4,(%rax)
  402267:	75 5a                	jne    4022c3 <rio_read+0x79>
  402269:	8b 6b 04             	mov    0x4(%rbx),%ebp
  40226c:	85 ed                	test   %ebp,%ebp
  40226e:	7f 22                	jg     402292 <rio_read+0x48>
  402270:	48 8d 6b 10          	lea    0x10(%rbx),%rbp
  402274:	ba 00 20 00 00       	mov    $0x2000,%edx
  402279:	48 89 ee             	mov    %rbp,%rsi
  40227c:	8b 3b                	mov    (%rbx),%edi
  40227e:	e8 6d eb ff ff       	callq  400df0 <read@plt>
  402283:	89 43 04             	mov    %eax,0x4(%rbx)
  402286:	85 c0                	test   %eax,%eax
  402288:	78 d5                	js     40225f <rio_read+0x15>
  40228a:	74 40                	je     4022cc <rio_read+0x82>
  40228c:	48 89 6b 08          	mov    %rbp,0x8(%rbx)
  402290:	eb d7                	jmp    402269 <rio_read+0x1f>
  402292:	89 e8                	mov    %ebp,%eax
  402294:	4c 39 e0             	cmp    %r12,%rax
  402297:	72 03                	jb     40229c <rio_read+0x52>
  402299:	44 89 e5             	mov    %r12d,%ebp
  40229c:	4c 63 e5             	movslq %ebp,%r12
  40229f:	48 8b 73 08          	mov    0x8(%rbx),%rsi
  4022a3:	4c 89 e2             	mov    %r12,%rdx
  4022a6:	4c 89 ef             	mov    %r13,%rdi
  4022a9:	e8 b2 eb ff ff       	callq  400e60 <memcpy@plt>
  4022ae:	4c 01 63 08          	add    %r12,0x8(%rbx)
  4022b2:	29 6b 04             	sub    %ebp,0x4(%rbx)
  4022b5:	4c 89 e0             	mov    %r12,%rax
  4022b8:	48 83 c4 08          	add    $0x8,%rsp
  4022bc:	5b                   	pop    %rbx
  4022bd:	5d                   	pop    %rbp
  4022be:	41 5c                	pop    %r12
  4022c0:	41 5d                	pop    %r13
  4022c2:	c3                   	retq   
  4022c3:	48 c7 c0 ff ff ff ff 	mov    $0xffffffffffffffff,%rax
  4022ca:	eb ec                	jmp    4022b8 <rio_read+0x6e>
  4022cc:	b8 00 00 00 00       	mov    $0x0,%eax
  4022d1:	eb e5                	jmp    4022b8 <rio_read+0x6e>

00000000004022d3 <rio_readlineb>:
  4022d3:	41 55                	push   %r13
  4022d5:	41 54                	push   %r12
  4022d7:	55                   	push   %rbp
  4022d8:	53                   	push   %rbx
  4022d9:	48 83 ec 18          	sub    $0x18,%rsp
  4022dd:	49 89 fd             	mov    %rdi,%r13
  4022e0:	48 89 f5             	mov    %rsi,%rbp
  4022e3:	49 89 d4             	mov    %rdx,%r12
  4022e6:	bb 01 00 00 00       	mov    $0x1,%ebx
  4022eb:	eb 18                	jmp    402305 <rio_readlineb+0x32>
  4022ed:	85 c0                	test   %eax,%eax
  4022ef:	75 55                	jne    402346 <rio_readlineb+0x73>
  4022f1:	48 83 fb 01          	cmp    $0x1,%rbx
  4022f5:	75 3d                	jne    402334 <rio_readlineb+0x61>
  4022f7:	b8 00 00 00 00       	mov    $0x0,%eax
  4022fc:	eb 3d                	jmp    40233b <rio_readlineb+0x68>
  4022fe:	48 83 c3 01          	add    $0x1,%rbx
  402302:	48 89 d5             	mov    %rdx,%rbp
  402305:	4c 39 e3             	cmp    %r12,%rbx
  402308:	73 2a                	jae    402334 <rio_readlineb+0x61>
  40230a:	ba 01 00 00 00       	mov    $0x1,%edx
  40230f:	48 8d 74 24 0f       	lea    0xf(%rsp),%rsi
  402314:	4c 89 ef             	mov    %r13,%rdi
  402317:	e8 2e ff ff ff       	callq  40224a <rio_read>
  40231c:	83 f8 01             	cmp    $0x1,%eax
  40231f:	75 cc                	jne    4022ed <rio_readlineb+0x1a>
  402321:	48 8d 55 01          	lea    0x1(%rbp),%rdx
  402325:	0f b6 44 24 0f       	movzbl 0xf(%rsp),%eax
  40232a:	88 45 00             	mov    %al,0x0(%rbp)
  40232d:	3c 0a                	cmp    $0xa,%al
  40232f:	75 cd                	jne    4022fe <rio_readlineb+0x2b>
  402331:	48 89 d5             	mov    %rdx,%rbp
  402334:	c6 45 00 00          	movb   $0x0,0x0(%rbp)
  402338:	48 89 d8             	mov    %rbx,%rax
  40233b:	48 83 c4 18          	add    $0x18,%rsp
  40233f:	5b                   	pop    %rbx
  402340:	5d                   	pop    %rbp
  402341:	41 5c                	pop    %r12
  402343:	41 5d                	pop    %r13
  402345:	c3                   	retq   
  402346:	48 c7 c0 ff ff ff ff 	mov    $0xffffffffffffffff,%rax
  40234d:	eb ec                	jmp    40233b <rio_readlineb+0x68>

000000000040234f <submitr>:
  40234f:	41 57                	push   %r15
  402351:	41 56                	push   %r14
  402353:	41 55                	push   %r13
  402355:	41 54                	push   %r12
  402357:	55                   	push   %rbp
  402358:	53                   	push   %rbx
  402359:	48 81 ec 58 a0 00 00 	sub    $0xa058,%rsp
  402360:	49 89 fc             	mov    %rdi,%r12
  402363:	41 89 f7             	mov    %esi,%r15d
  402366:	49 89 d6             	mov    %rdx,%r14
  402369:	48 89 4c 24 08       	mov    %rcx,0x8(%rsp)
  40236e:	4c 89 44 24 10       	mov    %r8,0x10(%rsp)
  402373:	4d 89 cd             	mov    %r9,%r13
  402376:	48 8b ac 24 90 a0 00 	mov    0xa090(%rsp),%rbp
  40237d:	00 
  40237e:	c7 84 24 2c 20 00 00 	movl   $0x0,0x202c(%rsp)
  402385:	00 00 00 00 
  402389:	ba 00 00 00 00       	mov    $0x0,%edx
  40238e:	be 01 00 00 00       	mov    $0x1,%esi
  402393:	bf 02 00 00 00       	mov    $0x2,%edi
  402398:	e8 a3 eb ff ff       	callq  400f40 <socket@plt>
  40239d:	85 c0                	test   %eax,%eax
  40239f:	0f 88 a7 01 00 00    	js     40254c <submitr+0x1fd>
  4023a5:	89 c3                	mov    %eax,%ebx
  4023a7:	4c 89 e7             	mov    %r12,%rdi
  4023aa:	e8 71 ea ff ff       	callq  400e20 <gethostbyname@plt>
  4023af:	48 85 c0             	test   %rax,%rax
  4023b2:	0f 84 e3 01 00 00    	je     40259b <submitr+0x24c>
  4023b8:	48 c7 84 24 40 a0 00 	movq   $0x0,0xa040(%rsp)
  4023bf:	00 00 00 00 00 
  4023c4:	48 c7 84 24 48 a0 00 	movq   $0x0,0xa048(%rsp)
  4023cb:	00 00 00 00 00 
  4023d0:	66 c7 84 24 40 a0 00 	movw   $0x2,0xa040(%rsp)
  4023d7:	00 02 00 
  4023da:	48 8b 48 18          	mov    0x18(%rax),%rcx
  4023de:	48 63 50 14          	movslq 0x14(%rax),%rdx
  4023e2:	48 8b 31             	mov    (%rcx),%rsi
  4023e5:	48 8d bc 24 44 a0 00 	lea    0xa044(%rsp),%rdi
  4023ec:	00 
  4023ed:	e8 ce ea ff ff       	callq  400ec0 <memmove@plt>
  4023f2:	66 41 c1 cf 08       	ror    $0x8,%r15w
  4023f7:	66 44 89 bc 24 42 a0 	mov    %r15w,0xa042(%rsp)
  4023fe:	00 00 
  402400:	ba 10 00 00 00       	mov    $0x10,%edx
  402405:	48 8d b4 24 40 a0 00 	lea    0xa040(%rsp),%rsi
  40240c:	00 
  40240d:	89 df                	mov    %ebx,%edi
  40240f:	e8 1c eb ff ff       	callq  400f30 <connect@plt>
  402414:	85 c0                	test   %eax,%eax
  402416:	0f 88 e7 01 00 00    	js     402603 <submitr+0x2b4>
  40241c:	4c 89 ef             	mov    %r13,%rdi
  40241f:	e8 6c e9 ff ff       	callq  400d90 <strlen@plt>
  402424:	49 89 c7             	mov    %rax,%r15
  402427:	4c 89 f7             	mov    %r14,%rdi
  40242a:	e8 61 e9 ff ff       	callq  400d90 <strlen@plt>
  40242f:	48 89 44 24 18       	mov    %rax,0x18(%rsp)
  402434:	48 8b 7c 24 08       	mov    0x8(%rsp),%rdi
  402439:	e8 52 e9 ff ff       	callq  400d90 <strlen@plt>
  40243e:	48 03 44 24 18       	add    0x18(%rsp),%rax
  402443:	48 89 44 24 18       	mov    %rax,0x18(%rsp)
  402448:	48 8b 7c 24 10       	mov    0x10(%rsp),%rdi
  40244d:	e8 3e e9 ff ff       	callq  400d90 <strlen@plt>
  402452:	48 03 44 24 18       	add    0x18(%rsp),%rax
  402457:	4b 8d 14 7f          	lea    (%r15,%r15,2),%rdx
  40245b:	48 8d 84 10 80 00 00 	lea    0x80(%rax,%rdx,1),%rax
  402462:	00 
  402463:	48 3d 00 20 00 00    	cmp    $0x2000,%rax
  402469:	0f 87 ee 01 00 00    	ja     40265d <submitr+0x30e>
  40246f:	48 8d b4 24 30 40 00 	lea    0x4030(%rsp),%rsi
  402476:	00 
  402477:	b9 00 04 00 00       	mov    $0x400,%ecx
  40247c:	b8 00 00 00 00       	mov    $0x0,%eax
  402481:	48 89 f7             	mov    %rsi,%rdi
  402484:	f3 48 ab             	rep stos %rax,%es:(%rdi)
  402487:	4c 89 ef             	mov    %r13,%rdi
  40248a:	e8 92 fc ff ff       	callq  402121 <urlencode>
  40248f:	85 c0                	test   %eax,%eax
  402491:	0f 88 39 02 00 00    	js     4026d0 <submitr+0x381>
  402497:	4d 89 e1             	mov    %r12,%r9
  40249a:	4c 8d 84 24 30 40 00 	lea    0x4030(%rsp),%r8
  4024a1:	00 
  4024a2:	4c 89 f1             	mov    %r14,%rcx
  4024a5:	48 8b 54 24 08       	mov    0x8(%rsp),%rdx
  4024aa:	be 28 36 40 00       	mov    $0x403628,%esi
  4024af:	48 8d bc 24 30 60 00 	lea    0x6030(%rsp),%rdi
  4024b6:	00 
  4024b7:	b8 00 00 00 00       	mov    $0x0,%eax
  4024bc:	e8 4f ea ff ff       	callq  400f10 <sprintf@plt>
  4024c1:	48 8d bc 24 30 60 00 	lea    0x6030(%rsp),%rdi
  4024c8:	00 
  4024c9:	e8 c2 e8 ff ff       	callq  400d90 <strlen@plt>
  4024ce:	48 89 c2             	mov    %rax,%rdx
  4024d1:	48 8d b4 24 30 60 00 	lea    0x6030(%rsp),%rsi
  4024d8:	00 
  4024d9:	89 df                	mov    %ebx,%edi
  4024db:	e8 0c fd ff ff       	callq  4021ec <rio_writen>
  4024e0:	48 85 c0             	test   %rax,%rax
  4024e3:	0f 88 72 02 00 00    	js     40275b <submitr+0x40c>
  4024e9:	89 de                	mov    %ebx,%esi
  4024eb:	48 8d bc 24 30 80 00 	lea    0x8030(%rsp),%rdi
  4024f2:	00 
  4024f3:	e8 ee fb ff ff       	callq  4020e6 <rio_readinitb>
  4024f8:	ba 00 20 00 00       	mov    $0x2000,%edx
  4024fd:	48 8d b4 24 30 60 00 	lea    0x6030(%rsp),%rsi
  402504:	00 
  402505:	48 8d bc 24 30 80 00 	lea    0x8030(%rsp),%rdi
  40250c:	00 
  40250d:	e8 c1 fd ff ff       	callq  4022d3 <rio_readlineb>
  402512:	48 85 c0             	test   %rax,%rax
  402515:	0f 8e af 02 00 00    	jle    4027ca <submitr+0x47b>
  40251b:	4c 8d 44 24 20       	lea    0x20(%rsp),%r8
  402520:	48 8d 8c 24 2c 20 00 	lea    0x202c(%rsp),%rcx
  402527:	00 
  402528:	48 8d 94 24 30 20 00 	lea    0x2030(%rsp),%rdx
  40252f:	00 
  402530:	be 9f 36 40 00       	mov    $0x40369f,%esi
  402535:	48 8d bc 24 30 60 00 	lea    0x6030(%rsp),%rdi
  40253c:	00 
  40253d:	b8 00 00 00 00       	mov    $0x0,%eax
  402542:	e8 59 e9 ff ff       	callq  400ea0 <__isoc99_sscanf@plt>
  402547:	e9 a7 03 00 00       	jmpq   4028f3 <submitr+0x5a4>
  40254c:	48 b8 45 72 72 6f 72 	movabs $0x43203a726f727245,%rax
  402553:	3a 20 43 
  402556:	48 ba 6c 69 65 6e 74 	movabs $0x6e7520746e65696c,%rdx
  40255d:	20 75 6e 
  402560:	48 89 45 00          	mov    %rax,0x0(%rbp)
  402564:	48 89 55 08          	mov    %rdx,0x8(%rbp)
  402568:	48 b8 61 62 6c 65 20 	movabs $0x206f7420656c6261,%rax
  40256f:	74 6f 20 
  402572:	48 ba 63 72 65 61 74 	movabs $0x7320657461657263,%rdx
  402579:	65 20 73 
  40257c:	48 89 45 10          	mov    %rax,0x10(%rbp)
  402580:	48 89 55 18          	mov    %rdx,0x18(%rbp)
  402584:	c7 45 20 6f 63 6b 65 	movl   $0x656b636f,0x20(%rbp)
  40258b:	66 c7 45 24 74 00    	movw   $0x74,0x24(%rbp)
  402591:	b8 ff ff ff ff       	mov    $0xffffffff,%eax
  402596:	e9 1f 03 00 00       	jmpq   4028ba <submitr+0x56b>
  40259b:	48 b8 45 72 72 6f 72 	movabs $0x44203a726f727245,%rax
  4025a2:	3a 20 44 
  4025a5:	48 ba 4e 53 20 69 73 	movabs $0x6e7520736920534e,%rdx
  4025ac:	20 75 6e 
  4025af:	48 89 45 00          	mov    %rax,0x0(%rbp)
  4025b3:	48 89 55 08          	mov    %rdx,0x8(%rbp)
  4025b7:	48 b8 61 62 6c 65 20 	movabs $0x206f7420656c6261,%rax
  4025be:	74 6f 20 
  4025c1:	48 ba 72 65 73 6f 6c 	movabs $0x2065766c6f736572,%rdx
  4025c8:	76 65 20 
  4025cb:	48 89 45 10          	mov    %rax,0x10(%rbp)
  4025cf:	48 89 55 18          	mov    %rdx,0x18(%rbp)
  4025d3:	48 b8 73 65 72 76 65 	movabs $0x6120726576726573,%rax
  4025da:	72 20 61 
  4025dd:	48 89 45 20          	mov    %rax,0x20(%rbp)
  4025e1:	c7 45 28 64 64 72 65 	movl   $0x65726464,0x28(%rbp)
  4025e8:	66 c7 45 2c 73 73    	movw   $0x7373,0x2c(%rbp)
  4025ee:	c6 45 2e 00          	movb   $0x0,0x2e(%rbp)
  4025f2:	89 df                	mov    %ebx,%edi
  4025f4:	e8 e7 e7 ff ff       	callq  400de0 <close@plt>
  4025f9:	b8 ff ff ff ff       	mov    $0xffffffff,%eax
  4025fe:	e9 b7 02 00 00       	jmpq   4028ba <submitr+0x56b>
  402603:	48 b8 45 72 72 6f 72 	movabs $0x55203a726f727245,%rax
  40260a:	3a 20 55 
  40260d:	48 ba 6e 61 62 6c 65 	movabs $0x6f7420656c62616e,%rdx
  402614:	20 74 6f 
  402617:	48 89 45 00          	mov    %rax,0x0(%rbp)
  40261b:	48 89 55 08          	mov    %rdx,0x8(%rbp)
  40261f:	48 b8 20 63 6f 6e 6e 	movabs $0x7463656e6e6f6320,%rax
  402626:	65 63 74 
  402629:	48 ba 20 74 6f 20 74 	movabs $0x20656874206f7420,%rdx
  402630:	68 65 20 
  402633:	48 89 45 10          	mov    %rax,0x10(%rbp)
  402637:	48 89 55 18          	mov    %rdx,0x18(%rbp)
  40263b:	c7 45 20 73 65 72 76 	movl   $0x76726573,0x20(%rbp)
  402642:	66 c7 45 24 65 72    	movw   $0x7265,0x24(%rbp)
  402648:	c6 45 26 00          	movb   $0x0,0x26(%rbp)
  40264c:	89 df                	mov    %ebx,%edi
  40264e:	e8 8d e7 ff ff       	callq  400de0 <close@plt>
  402653:	b8 ff ff ff ff       	mov    $0xffffffff,%eax
  402658:	e9 5d 02 00 00       	jmpq   4028ba <submitr+0x56b>
  40265d:	48 b8 45 72 72 6f 72 	movabs $0x52203a726f727245,%rax
  402664:	3a 20 52 
  402667:	48 ba 65 73 75 6c 74 	movabs $0x747320746c757365,%rdx
  40266e:	20 73 74 
  402671:	48 89 45 00          	mov    %rax,0x0(%rbp)
  402675:	48 89 55 08          	mov    %rdx,0x8(%rbp)
  402679:	48 b8 72 69 6e 67 20 	movabs $0x6f6f7420676e6972,%rax
  402680:	74 6f 6f 
  402683:	48 ba 20 6c 61 72 67 	movabs $0x202e656772616c20,%rdx
  40268a:	65 2e 20 
  40268d:	48 89 45 10          	mov    %rax,0x10(%rbp)
  402691:	48 89 55 18          	mov    %rdx,0x18(%rbp)
  402695:	48 b8 49 6e 63 72 65 	movabs $0x6573616572636e49,%rax
  40269c:	61 73 65 
  40269f:	48 ba 20 53 55 42 4d 	movabs $0x5254494d42555320,%rdx
  4026a6:	49 54 52 
  4026a9:	48 89 45 20          	mov    %rax,0x20(%rbp)
  4026ad:	48 89 55 28          	mov    %rdx,0x28(%rbp)
  4026b1:	48 b8 5f 4d 41 58 42 	movabs $0x46554258414d5f,%rax
  4026b8:	55 46 00 
  4026bb:	48 89 45 30          	mov    %rax,0x30(%rbp)
  4026bf:	89 df                	mov    %ebx,%edi
  4026c1:	e8 1a e7 ff ff       	callq  400de0 <close@plt>
  4026c6:	b8 ff ff ff ff       	mov    $0xffffffff,%eax
  4026cb:	e9 ea 01 00 00       	jmpq   4028ba <submitr+0x56b>
  4026d0:	48 b8 45 72 72 6f 72 	movabs $0x52203a726f727245,%rax
  4026d7:	3a 20 52 
  4026da:	48 ba 65 73 75 6c 74 	movabs $0x747320746c757365,%rdx
  4026e1:	20 73 74 
  4026e4:	48 89 45 00          	mov    %rax,0x0(%rbp)
  4026e8:	48 89 55 08          	mov    %rdx,0x8(%rbp)
  4026ec:	48 b8 72 69 6e 67 20 	movabs $0x6e6f6320676e6972,%rax
  4026f3:	63 6f 6e 
  4026f6:	48 ba 74 61 69 6e 73 	movabs $0x6e6120736e696174,%rdx
  4026fd:	20 61 6e 
  402700:	48 89 45 10          	mov    %rax,0x10(%rbp)
  402704:	48 89 55 18          	mov    %rdx,0x18(%rbp)
  402708:	48 b8 20 69 6c 6c 65 	movabs $0x6c6167656c6c6920,%rax
  40270f:	67 61 6c 
  402712:	48 ba 20 6f 72 20 75 	movabs $0x72706e7520726f20,%rdx
  402719:	6e 70 72 
  40271c:	48 89 45 20          	mov    %rax,0x20(%rbp)
  402720:	48 89 55 28          	mov    %rdx,0x28(%rbp)
  402724:	48 b8 69 6e 74 61 62 	movabs $0x20656c6261746e69,%rax
  40272b:	6c 65 20 
  40272e:	48 ba 63 68 61 72 61 	movabs $0x6574636172616863,%rdx
  402735:	63 74 65 
  402738:	48 89 45 30          	mov    %rax,0x30(%rbp)
  40273c:	48 89 55 38          	mov    %rdx,0x38(%rbp)
  402740:	66 c7 45 40 72 2e    	movw   $0x2e72,0x40(%rbp)
  402746:	c6 45 42 00          	movb   $0x0,0x42(%rbp)
  40274a:	89 df                	mov    %ebx,%edi
  40274c:	e8 8f e6 ff ff       	callq  400de0 <close@plt>
  402751:	b8 ff ff ff ff       	mov    $0xffffffff,%eax
  402756:	e9 5f 01 00 00       	jmpq   4028ba <submitr+0x56b>
  40275b:	48 b8 45 72 72 6f 72 	movabs $0x43203a726f727245,%rax
  402762:	3a 20 43 
  402765:	48 ba 6c 69 65 6e 74 	movabs $0x6e7520746e65696c,%rdx
  40276c:	20 75 6e 
  40276f:	48 89 45 00          	mov    %rax,0x0(%rbp)
  402773:	48 89 55 08          	mov    %rdx,0x8(%rbp)
  402777:	48 b8 61 62 6c 65 20 	movabs $0x206f7420656c6261,%rax
  40277e:	74 6f 20 
  402781:	48 ba 77 72 69 74 65 	movabs $0x6f74206574697277,%rdx
  402788:	20 74 6f 
  40278b:	48 89 45 10          	mov    %rax,0x10(%rbp)
  40278f:	48 89 55 18          	mov    %rdx,0x18(%rbp)
  402793:	48 b8 20 74 68 65 20 	movabs $0x7365722065687420,%rax
  40279a:	72 65 73 
  40279d:	48 ba 75 6c 74 20 73 	movabs $0x7672657320746c75,%rdx
  4027a4:	65 72 76 
  4027a7:	48 89 45 20          	mov    %rax,0x20(%rbp)
  4027ab:	48 89 55 28          	mov    %rdx,0x28(%rbp)
  4027af:	66 c7 45 30 65 72    	movw   $0x7265,0x30(%rbp)
  4027b5:	c6 45 32 00          	movb   $0x0,0x32(%rbp)
  4027b9:	89 df                	mov    %ebx,%edi
  4027bb:	e8 20 e6 ff ff       	callq  400de0 <close@plt>
  4027c0:	b8 ff ff ff ff       	mov    $0xffffffff,%eax
  4027c5:	e9 f0 00 00 00       	jmpq   4028ba <submitr+0x56b>
  4027ca:	48 b8 45 72 72 6f 72 	movabs $0x43203a726f727245,%rax
  4027d1:	3a 20 43 
  4027d4:	48 ba 6c 69 65 6e 74 	movabs $0x6e7520746e65696c,%rdx
  4027db:	20 75 6e 
  4027de:	48 89 45 00          	mov    %rax,0x0(%rbp)
  4027e2:	48 89 55 08          	mov    %rdx,0x8(%rbp)
  4027e6:	48 b8 61 62 6c 65 20 	movabs $0x206f7420656c6261,%rax
  4027ed:	74 6f 20 
  4027f0:	48 ba 72 65 61 64 20 	movabs $0x7269662064616572,%rdx
  4027f7:	66 69 72 
  4027fa:	48 89 45 10          	mov    %rax,0x10(%rbp)
  4027fe:	48 89 55 18          	mov    %rdx,0x18(%rbp)
  402802:	48 b8 73 74 20 68 65 	movabs $0x6564616568207473,%rax
  402809:	61 64 65 
  40280c:	48 ba 72 20 66 72 6f 	movabs $0x72206d6f72662072,%rdx
  402813:	6d 20 72 
  402816:	48 89 45 20          	mov    %rax,0x20(%rbp)
  40281a:	48 89 55 28          	mov    %rdx,0x28(%rbp)
  40281e:	48 b8 65 73 75 6c 74 	movabs $0x657320746c757365,%rax
  402825:	20 73 65 
  402828:	48 89 45 30          	mov    %rax,0x30(%rbp)
  40282c:	c7 45 38 72 76 65 72 	movl   $0x72657672,0x38(%rbp)
  402833:	c6 45 3c 00          	movb   $0x0,0x3c(%rbp)
  402837:	89 df                	mov    %ebx,%edi
  402839:	e8 a2 e5 ff ff       	callq  400de0 <close@plt>
  40283e:	b8 ff ff ff ff       	mov    $0xffffffff,%eax
  402843:	eb 75                	jmp    4028ba <submitr+0x56b>
  402845:	48 b8 45 72 72 6f 72 	movabs $0x43203a726f727245,%rax
  40284c:	3a 20 43 
  40284f:	48 ba 6c 69 65 6e 74 	movabs $0x6e7520746e65696c,%rdx
  402856:	20 75 6e 
  402859:	48 89 45 00          	mov    %rax,0x0(%rbp)
  40285d:	48 89 55 08          	mov    %rdx,0x8(%rbp)
  402861:	48 b8 61 62 6c 65 20 	movabs $0x206f7420656c6261,%rax
  402868:	74 6f 20 
  40286b:	48 ba 72 65 61 64 20 	movabs $0x6165682064616572,%rdx
  402872:	68 65 61 
  402875:	48 89 45 10          	mov    %rax,0x10(%rbp)
  402879:	48 89 55 18          	mov    %rdx,0x18(%rbp)
  40287d:	48 b8 64 65 72 73 20 	movabs $0x6f72662073726564,%rax
  402884:	66 72 6f 
  402887:	48 ba 6d 20 74 68 65 	movabs $0x657220656874206d,%rdx
  40288e:	20 72 65 
  402891:	48 89 45 20          	mov    %rax,0x20(%rbp)
  402895:	48 89 55 28          	mov    %rdx,0x28(%rbp)
  402899:	48 b8 73 75 6c 74 20 	movabs $0x72657320746c7573,%rax
  4028a0:	73 65 72 
  4028a3:	48 89 45 30          	mov    %rax,0x30(%rbp)
  4028a7:	c7 45 38 76 65 72 00 	movl   $0x726576,0x38(%rbp)
  4028ae:	89 df                	mov    %ebx,%edi
  4028b0:	e8 2b e5 ff ff       	callq  400de0 <close@plt>
  4028b5:	b8 ff ff ff ff       	mov    $0xffffffff,%eax
  4028ba:	48 81 c4 58 a0 00 00 	add    $0xa058,%rsp
  4028c1:	5b                   	pop    %rbx
  4028c2:	5d                   	pop    %rbp
  4028c3:	41 5c                	pop    %r12
  4028c5:	41 5d                	pop    %r13
  4028c7:	41 5e                	pop    %r14
  4028c9:	41 5f                	pop    %r15
  4028cb:	c3                   	retq   
  4028cc:	85 c0                	test   %eax,%eax
  4028ce:	74 47                	je     402917 <submitr+0x5c8>
  4028d0:	ba 00 20 00 00       	mov    $0x2000,%edx
  4028d5:	48 8d b4 24 30 60 00 	lea    0x6030(%rsp),%rsi
  4028dc:	00 
  4028dd:	48 8d bc 24 30 80 00 	lea    0x8030(%rsp),%rdi
  4028e4:	00 
  4028e5:	e8 e9 f9 ff ff       	callq  4022d3 <rio_readlineb>
  4028ea:	48 85 c0             	test   %rax,%rax
  4028ed:	0f 8e 52 ff ff ff    	jle    402845 <submitr+0x4f6>
  4028f3:	0f b6 84 24 30 60 00 	movzbl 0x6030(%rsp),%eax
  4028fa:	00 
  4028fb:	83 e8 0d             	sub    $0xd,%eax
  4028fe:	75 cc                	jne    4028cc <submitr+0x57d>
  402900:	0f b6 84 24 31 60 00 	movzbl 0x6031(%rsp),%eax
  402907:	00 
  402908:	83 e8 0a             	sub    $0xa,%eax
  40290b:	75 bf                	jne    4028cc <submitr+0x57d>
  40290d:	0f b6 84 24 32 60 00 	movzbl 0x6032(%rsp),%eax
  402914:	00 
  402915:	eb b5                	jmp    4028cc <submitr+0x57d>
  402917:	ba 00 20 00 00       	mov    $0x2000,%edx
  40291c:	48 8d b4 24 30 60 00 	lea    0x6030(%rsp),%rsi
  402923:	00 
  402924:	48 8d bc 24 30 80 00 	lea    0x8030(%rsp),%rdi
  40292b:	00 
  40292c:	e8 a2 f9 ff ff       	callq  4022d3 <rio_readlineb>
  402931:	48 85 c0             	test   %rax,%rax
  402934:	7e 5a                	jle    402990 <submitr+0x641>
  402936:	8b 94 24 2c 20 00 00 	mov    0x202c(%rsp),%edx
  40293d:	81 fa c8 00 00 00    	cmp    $0xc8,%edx
  402943:	0f 85 cb 00 00 00    	jne    402a14 <submitr+0x6c5>
  402949:	48 8d b4 24 30 60 00 	lea    0x6030(%rsp),%rsi
  402950:	00 
  402951:	48 89 ef             	mov    %rbp,%rdi
  402954:	e8 07 e4 ff ff       	callq  400d60 <strcpy@plt>
  402959:	89 df                	mov    %ebx,%edi
  40295b:	e8 80 e4 ff ff       	callq  400de0 <close@plt>
  402960:	0f b6 55 00          	movzbl 0x0(%rbp),%edx
  402964:	83 ea 4f             	sub    $0x4f,%edx
  402967:	0f 85 cf 00 00 00    	jne    402a3c <submitr+0x6ed>
  40296d:	0f b6 45 01          	movzbl 0x1(%rbp),%eax
  402971:	83 e8 4b             	sub    $0x4b,%eax
  402974:	0f 85 c4 00 00 00    	jne    402a3e <submitr+0x6ef>
  40297a:	0f b6 45 02          	movzbl 0x2(%rbp),%eax
  40297e:	83 e8 0a             	sub    $0xa,%eax
  402981:	0f 85 b7 00 00 00    	jne    402a3e <submitr+0x6ef>
  402987:	0f b6 45 03          	movzbl 0x3(%rbp),%eax
  40298b:	e9 ae 00 00 00       	jmpq   402a3e <submitr+0x6ef>
  402990:	48 b8 45 72 72 6f 72 	movabs $0x43203a726f727245,%rax
  402997:	3a 20 43 
  40299a:	48 ba 6c 69 65 6e 74 	movabs $0x6e7520746e65696c,%rdx
  4029a1:	20 75 6e 
  4029a4:	48 89 45 00          	mov    %rax,0x0(%rbp)
  4029a8:	48 89 55 08          	mov    %rdx,0x8(%rbp)
  4029ac:	48 b8 61 62 6c 65 20 	movabs $0x206f7420656c6261,%rax
  4029b3:	74 6f 20 
  4029b6:	48 ba 72 65 61 64 20 	movabs $0x6174732064616572,%rdx
  4029bd:	73 74 61 
  4029c0:	48 89 45 10          	mov    %rax,0x10(%rbp)
  4029c4:	48 89 55 18          	mov    %rdx,0x18(%rbp)
  4029c8:	48 b8 74 75 73 20 6d 	movabs $0x7373656d20737574,%rax
  4029cf:	65 73 73 
  4029d2:	48 ba 61 67 65 20 66 	movabs $0x6d6f726620656761,%rdx
  4029d9:	72 6f 6d 
  4029dc:	48 89 45 20          	mov    %rax,0x20(%rbp)
  4029e0:	48 89 55 28          	mov    %rdx,0x28(%rbp)
  4029e4:	48 b8 20 72 65 73 75 	movabs $0x20746c7573657220,%rax
  4029eb:	6c 74 20 
  4029ee:	48 89 45 30          	mov    %rax,0x30(%rbp)
  4029f2:	c7 45 38 73 65 72 76 	movl   $0x76726573,0x38(%rbp)
  4029f9:	66 c7 45 3c 65 72    	movw   $0x7265,0x3c(%rbp)
  4029ff:	c6 45 3e 00          	movb   $0x0,0x3e(%rbp)
  402a03:	89 df                	mov    %ebx,%edi
  402a05:	e8 d6 e3 ff ff       	callq  400de0 <close@plt>
  402a0a:	b8 ff ff ff ff       	mov    $0xffffffff,%eax
  402a0f:	e9 a6 fe ff ff       	jmpq   4028ba <submitr+0x56b>
  402a14:	48 8d 4c 24 20       	lea    0x20(%rsp),%rcx
  402a19:	be 68 36 40 00       	mov    $0x403668,%esi
  402a1e:	48 89 ef             	mov    %rbp,%rdi
  402a21:	b8 00 00 00 00       	mov    $0x0,%eax
  402a26:	e8 e5 e4 ff ff       	callq  400f10 <sprintf@plt>
  402a2b:	89 df                	mov    %ebx,%edi
  402a2d:	e8 ae e3 ff ff       	callq  400de0 <close@plt>
  402a32:	b8 ff ff ff ff       	mov    $0xffffffff,%eax
  402a37:	e9 7e fe ff ff       	jmpq   4028ba <submitr+0x56b>
  402a3c:	89 d0                	mov    %edx,%eax
  402a3e:	85 c0                	test   %eax,%eax
  402a40:	0f 84 74 fe ff ff    	je     4028ba <submitr+0x56b>
  402a46:	bf b0 36 40 00       	mov    $0x4036b0,%edi
  402a4b:	b9 05 00 00 00       	mov    $0x5,%ecx
  402a50:	48 89 ee             	mov    %rbp,%rsi
  402a53:	f3 a6                	repz cmpsb %es:(%rdi),%ds:(%rsi)
  402a55:	0f 97 c0             	seta   %al
  402a58:	1c 00                	sbb    $0x0,%al
  402a5a:	0f be c0             	movsbl %al,%eax
  402a5d:	85 c0                	test   %eax,%eax
  402a5f:	0f 84 55 fe ff ff    	je     4028ba <submitr+0x56b>
  402a65:	85 d2                	test   %edx,%edx
  402a67:	75 0d                	jne    402a76 <submitr+0x727>
  402a69:	0f b6 55 01          	movzbl 0x1(%rbp),%edx
  402a6d:	83 ea 4b             	sub    $0x4b,%edx
  402a70:	75 04                	jne    402a76 <submitr+0x727>
  402a72:	0f b6 55 02          	movzbl 0x2(%rbp),%edx
  402a76:	85 d2                	test   %edx,%edx
  402a78:	75 07                	jne    402a81 <submitr+0x732>
  402a7a:	89 d0                	mov    %edx,%eax
  402a7c:	e9 39 fe ff ff       	jmpq   4028ba <submitr+0x56b>
  402a81:	b8 ff ff ff ff       	mov    $0xffffffff,%eax
  402a86:	e9 2f fe ff ff       	jmpq   4028ba <submitr+0x56b>

0000000000402a8b <init_timeout>:
  402a8b:	85 ff                	test   %edi,%edi
  402a8d:	74 24                	je     402ab3 <init_timeout+0x28>
  402a8f:	53                   	push   %rbx
  402a90:	89 fb                	mov    %edi,%ebx
  402a92:	78 18                	js     402aac <init_timeout+0x21>
  402a94:	be f8 20 40 00       	mov    $0x4020f8,%esi
  402a99:	bf 0e 00 00 00       	mov    $0xe,%edi
  402a9e:	e8 6d e3 ff ff       	callq  400e10 <signal@plt>
  402aa3:	89 df                	mov    %ebx,%edi
  402aa5:	e8 26 e3 ff ff       	callq  400dd0 <alarm@plt>
  402aaa:	5b                   	pop    %rbx
  402aab:	c3                   	retq   
  402aac:	bb 00 00 00 00       	mov    $0x0,%ebx
  402ab1:	eb e1                	jmp    402a94 <init_timeout+0x9>
  402ab3:	c3                   	retq   

0000000000402ab4 <init_driver>:
  402ab4:	55                   	push   %rbp
  402ab5:	53                   	push   %rbx
  402ab6:	48 83 ec 18          	sub    $0x18,%rsp
  402aba:	48 89 fd             	mov    %rdi,%rbp
  402abd:	be 01 00 00 00       	mov    $0x1,%esi
  402ac2:	bf 0d 00 00 00       	mov    $0xd,%edi
  402ac7:	e8 44 e3 ff ff       	callq  400e10 <signal@plt>
  402acc:	be 01 00 00 00       	mov    $0x1,%esi
  402ad1:	bf 1d 00 00 00       	mov    $0x1d,%edi
  402ad6:	e8 35 e3 ff ff       	callq  400e10 <signal@plt>
  402adb:	be 01 00 00 00       	mov    $0x1,%esi
  402ae0:	bf 1d 00 00 00       	mov    $0x1d,%edi
  402ae5:	e8 26 e3 ff ff       	callq  400e10 <signal@plt>
  402aea:	ba 00 00 00 00       	mov    $0x0,%edx
  402aef:	be 01 00 00 00       	mov    $0x1,%esi
  402af4:	bf 02 00 00 00       	mov    $0x2,%edi
  402af9:	e8 42 e4 ff ff       	callq  400f40 <socket@plt>
  402afe:	85 c0                	test   %eax,%eax
  402b00:	78 7c                	js     402b7e <init_driver+0xca>
  402b02:	89 c3                	mov    %eax,%ebx
  402b04:	bf 8f 31 40 00       	mov    $0x40318f,%edi
  402b09:	e8 12 e3 ff ff       	callq  400e20 <gethostbyname@plt>
  402b0e:	48 85 c0             	test   %rax,%rax
  402b11:	0f 84 b3 00 00 00    	je     402bca <init_driver+0x116>
  402b17:	48 c7 04 24 00 00 00 	movq   $0x0,(%rsp)
  402b1e:	00 
  402b1f:	48 c7 44 24 08 00 00 	movq   $0x0,0x8(%rsp)
  402b26:	00 00 
  402b28:	66 c7 04 24 02 00    	movw   $0x2,(%rsp)
  402b2e:	48 8b 48 18          	mov    0x18(%rax),%rcx
  402b32:	48 63 50 14          	movslq 0x14(%rax),%rdx
  402b36:	48 8b 31             	mov    (%rcx),%rsi
  402b39:	48 8d 7c 24 04       	lea    0x4(%rsp),%rdi
  402b3e:	e8 7d e3 ff ff       	callq  400ec0 <memmove@plt>
  402b43:	66 c7 44 24 02 47 26 	movw   $0x2647,0x2(%rsp)
  402b4a:	ba 10 00 00 00       	mov    $0x10,%edx
  402b4f:	48 89 e6             	mov    %rsp,%rsi
  402b52:	89 df                	mov    %ebx,%edi
  402b54:	e8 d7 e3 ff ff       	callq  400f30 <connect@plt>
  402b59:	85 c0                	test   %eax,%eax
  402b5b:	0f 88 d1 00 00 00    	js     402c32 <init_driver+0x17e>
  402b61:	89 df                	mov    %ebx,%edi
  402b63:	e8 78 e2 ff ff       	callq  400de0 <close@plt>
  402b68:	66 c7 45 00 4f 4b    	movw   $0x4b4f,0x0(%rbp)
  402b6e:	c6 45 02 00          	movb   $0x0,0x2(%rbp)
  402b72:	b8 00 00 00 00       	mov    $0x0,%eax
  402b77:	48 83 c4 18          	add    $0x18,%rsp
  402b7b:	5b                   	pop    %rbx
  402b7c:	5d                   	pop    %rbp
  402b7d:	c3                   	retq   
  402b7e:	48 b8 45 72 72 6f 72 	movabs $0x43203a726f727245,%rax
  402b85:	3a 20 43 
  402b88:	48 ba 6c 69 65 6e 74 	movabs $0x6e7520746e65696c,%rdx
  402b8f:	20 75 6e 
  402b92:	48 89 45 00          	mov    %rax,0x0(%rbp)
  402b96:	48 89 55 08          	mov    %rdx,0x8(%rbp)
  402b9a:	48 b8 61 62 6c 65 20 	movabs $0x206f7420656c6261,%rax
  402ba1:	74 6f 20 
  402ba4:	48 ba 63 72 65 61 74 	movabs $0x7320657461657263,%rdx
  402bab:	65 20 73 
  402bae:	48 89 45 10          	mov    %rax,0x10(%rbp)
  402bb2:	48 89 55 18          	mov    %rdx,0x18(%rbp)
  402bb6:	c7 45 20 6f 63 6b 65 	movl   $0x656b636f,0x20(%rbp)
  402bbd:	66 c7 45 24 74 00    	movw   $0x74,0x24(%rbp)
  402bc3:	b8 ff ff ff ff       	mov    $0xffffffff,%eax
  402bc8:	eb ad                	jmp    402b77 <init_driver+0xc3>
  402bca:	48 b8 45 72 72 6f 72 	movabs $0x44203a726f727245,%rax
  402bd1:	3a 20 44 
  402bd4:	48 ba 4e 53 20 69 73 	movabs $0x6e7520736920534e,%rdx
  402bdb:	20 75 6e 
  402bde:	48 89 45 00          	mov    %rax,0x0(%rbp)
  402be2:	48 89 55 08          	mov    %rdx,0x8(%rbp)
  402be6:	48 b8 61 62 6c 65 20 	movabs $0x206f7420656c6261,%rax
  402bed:	74 6f 20 
  402bf0:	48 ba 72 65 73 6f 6c 	movabs $0x2065766c6f736572,%rdx
  402bf7:	76 65 20 
  402bfa:	48 89 45 10          	mov    %rax,0x10(%rbp)
  402bfe:	48 89 55 18          	mov    %rdx,0x18(%rbp)
  402c02:	48 b8 73 65 72 76 65 	movabs $0x6120726576726573,%rax
  402c09:	72 20 61 
  402c0c:	48 89 45 20          	mov    %rax,0x20(%rbp)
  402c10:	c7 45 28 64 64 72 65 	movl   $0x65726464,0x28(%rbp)
  402c17:	66 c7 45 2c 73 73    	movw   $0x7373,0x2c(%rbp)
  402c1d:	c6 45 2e 00          	movb   $0x0,0x2e(%rbp)
  402c21:	89 df                	mov    %ebx,%edi
  402c23:	e8 b8 e1 ff ff       	callq  400de0 <close@plt>
  402c28:	b8 ff ff ff ff       	mov    $0xffffffff,%eax
  402c2d:	e9 45 ff ff ff       	jmpq   402b77 <init_driver+0xc3>
  402c32:	48 b8 6c 6e 78 73 72 	movabs $0x3630767273786e6c,%rax
  402c39:	76 30 36 
  402c3c:	48 ba 2e 73 65 61 73 	movabs $0x63752e736165732e,%rdx
  402c43:	2e 75 63 
  402c46:	48 89 45 00          	mov    %rax,0x0(%rbp)
  402c4a:	48 89 55 08          	mov    %rdx,0x8(%rbp)
  402c4e:	c7 45 10 6c 61 2e 65 	movl   $0x652e616c,0x10(%rbp)
  402c55:	66 c7 45 14 64 75    	movw   $0x7564,0x14(%rbp)
  402c5b:	c6 45 16 00          	movb   $0x0,0x16(%rbp)
  402c5f:	48 b8 45 72 72 6f 72 	movabs $0x55203a726f727245,%rax
  402c66:	3a 20 55 
  402c69:	48 ba 6e 61 62 6c 65 	movabs $0x6f7420656c62616e,%rdx
  402c70:	20 74 6f 
  402c73:	48 89 45 00          	mov    %rax,0x0(%rbp)
  402c77:	48 89 55 08          	mov    %rdx,0x8(%rbp)
  402c7b:	48 b8 20 63 6f 6e 6e 	movabs $0x7463656e6e6f6320,%rax
  402c82:	65 63 74 
  402c85:	48 ba 20 74 6f 20 73 	movabs $0x76726573206f7420,%rdx
  402c8c:	65 72 76 
  402c8f:	48 89 45 10          	mov    %rax,0x10(%rbp)
  402c93:	48 89 55 18          	mov    %rdx,0x18(%rbp)
  402c97:	66 c7 45 20 65 72    	movw   $0x7265,0x20(%rbp)
  402c9d:	c6 45 22 00          	movb   $0x0,0x22(%rbp)
  402ca1:	89 df                	mov    %ebx,%edi
  402ca3:	e8 38 e1 ff ff       	callq  400de0 <close@plt>
  402ca8:	b8 ff ff ff ff       	mov    $0xffffffff,%eax
  402cad:	e9 c5 fe ff ff       	jmpq   402b77 <init_driver+0xc3>

0000000000402cb2 <driver_post>:
  402cb2:	53                   	push   %rbx
  402cb3:	4c 89 cb             	mov    %r9,%rbx
  402cb6:	45 85 c0             	test   %r8d,%r8d
  402cb9:	75 18                	jne    402cd3 <driver_post+0x21>
  402cbb:	48 85 ff             	test   %rdi,%rdi
  402cbe:	74 05                	je     402cc5 <driver_post+0x13>
  402cc0:	80 3f 00             	cmpb   $0x0,(%rdi)
  402cc3:	75 30                	jne    402cf5 <driver_post+0x43>
  402cc5:	66 c7 03 4f 4b       	movw   $0x4b4f,(%rbx)
  402cca:	c6 43 02 00          	movb   $0x0,0x2(%rbx)
  402cce:	44 89 c0             	mov    %r8d,%eax
  402cd1:	5b                   	pop    %rbx
  402cd2:	c3                   	retq   
  402cd3:	48 89 ce             	mov    %rcx,%rsi
  402cd6:	bf b5 36 40 00       	mov    $0x4036b5,%edi
  402cdb:	b8 00 00 00 00       	mov    $0x0,%eax
  402ce0:	e8 cb e0 ff ff       	callq  400db0 <printf@plt>
  402ce5:	66 c7 03 4f 4b       	movw   $0x4b4f,(%rbx)
  402cea:	c6 43 02 00          	movb   $0x0,0x2(%rbx)
  402cee:	b8 00 00 00 00       	mov    $0x0,%eax
  402cf3:	eb dc                	jmp    402cd1 <driver_post+0x1f>
  402cf5:	48 83 ec 08          	sub    $0x8,%rsp
  402cf9:	41 51                	push   %r9
  402cfb:	49 89 c9             	mov    %rcx,%r9
  402cfe:	49 89 d0             	mov    %rdx,%r8
  402d01:	48 89 f9             	mov    %rdi,%rcx
  402d04:	48 89 f2             	mov    %rsi,%rdx
  402d07:	be 26 47 00 00       	mov    $0x4726,%esi
  402d0c:	bf 8f 31 40 00       	mov    $0x40318f,%edi
  402d11:	e8 39 f6 ff ff       	callq  40234f <submitr>
  402d16:	48 83 c4 10          	add    $0x10,%rsp
  402d1a:	eb b5                	jmp    402cd1 <driver_post+0x1f>

0000000000402d1c <check>:
  402d1c:	89 f8                	mov    %edi,%eax
  402d1e:	c1 e8 1c             	shr    $0x1c,%eax
  402d21:	74 1d                	je     402d40 <check+0x24>
  402d23:	b9 00 00 00 00       	mov    $0x0,%ecx
  402d28:	83 f9 1f             	cmp    $0x1f,%ecx
  402d2b:	7f 0d                	jg     402d3a <check+0x1e>
  402d2d:	89 f8                	mov    %edi,%eax
  402d2f:	d3 e8                	shr    %cl,%eax
  402d31:	3c 0a                	cmp    $0xa,%al
  402d33:	74 11                	je     402d46 <check+0x2a>
  402d35:	83 c1 08             	add    $0x8,%ecx
  402d38:	eb ee                	jmp    402d28 <check+0xc>
  402d3a:	b8 01 00 00 00       	mov    $0x1,%eax
  402d3f:	c3                   	retq   
  402d40:	b8 00 00 00 00       	mov    $0x0,%eax
  402d45:	c3                   	retq   
  402d46:	b8 00 00 00 00       	mov    $0x0,%eax
  402d4b:	c3                   	retq   

0000000000402d4c <gencookie>:
  402d4c:	53                   	push   %rbx
  402d4d:	83 c7 01             	add    $0x1,%edi
  402d50:	e8 eb df ff ff       	callq  400d40 <srandom@plt>
  402d55:	e8 26 e1 ff ff       	callq  400e80 <random@plt>
  402d5a:	48 89 c7             	mov    %rax,%rdi
  402d5d:	89 c3                	mov    %eax,%ebx
  402d5f:	e8 b8 ff ff ff       	callq  402d1c <check>
  402d64:	85 c0                	test   %eax,%eax
  402d66:	74 ed                	je     402d55 <gencookie+0x9>
  402d68:	89 d8                	mov    %ebx,%eax
  402d6a:	5b                   	pop    %rbx
  402d6b:	c3                   	retq   
  402d6c:	0f 1f 40 00          	nopl   0x0(%rax)

0000000000402d70 <__libc_csu_init>:
  402d70:	41 57                	push   %r15
  402d72:	41 89 ff             	mov    %edi,%r15d
  402d75:	41 56                	push   %r14
  402d77:	49 89 f6             	mov    %rsi,%r14
  402d7a:	41 55                	push   %r13
  402d7c:	49 89 d5             	mov    %rdx,%r13
  402d7f:	41 54                	push   %r12
  402d81:	4c 8d 25 90 20 20 00 	lea    0x202090(%rip),%r12        # 604e18 <__frame_dummy_init_array_entry>
  402d88:	55                   	push   %rbp
  402d89:	48 8d 2d 90 20 20 00 	lea    0x202090(%rip),%rbp        # 604e20 <__init_array_end>
  402d90:	53                   	push   %rbx
  402d91:	4c 29 e5             	sub    %r12,%rbp
  402d94:	31 db                	xor    %ebx,%ebx
  402d96:	48 c1 fd 03          	sar    $0x3,%rbp
  402d9a:	48 83 ec 08          	sub    $0x8,%rsp
  402d9e:	e8 45 df ff ff       	callq  400ce8 <_init>
  402da3:	48 85 ed             	test   %rbp,%rbp
  402da6:	74 1e                	je     402dc6 <__libc_csu_init+0x56>
  402da8:	0f 1f 84 00 00 00 00 	nopl   0x0(%rax,%rax,1)
  402daf:	00 
  402db0:	4c 89 ea             	mov    %r13,%rdx
  402db3:	4c 89 f6             	mov    %r14,%rsi
  402db6:	44 89 ff             	mov    %r15d,%edi
  402db9:	41 ff 14 dc          	callq  *(%r12,%rbx,8)
  402dbd:	48 83 c3 01          	add    $0x1,%rbx
  402dc1:	48 39 eb             	cmp    %rbp,%rbx
  402dc4:	75 ea                	jne    402db0 <__libc_csu_init+0x40>
  402dc6:	48 83 c4 08          	add    $0x8,%rsp
  402dca:	5b                   	pop    %rbx
  402dcb:	5d                   	pop    %rbp
  402dcc:	41 5c                	pop    %r12
  402dce:	41 5d                	pop    %r13
  402dd0:	41 5e                	pop    %r14
  402dd2:	41 5f                	pop    %r15
  402dd4:	c3                   	retq   
  402dd5:	90                   	nop
  402dd6:	66 2e 0f 1f 84 00 00 	nopw   %cs:0x0(%rax,%rax,1)
  402ddd:	00 00 00 

0000000000402de0 <__libc_csu_fini>:
  402de0:	f3 c3                	repz retq 

Disassembly of section .fini:

0000000000402de4 <_fini>:
  402de4:	48 83 ec 08          	sub    $0x8,%rsp
  402de8:	48 83 c4 08          	add    $0x8,%rsp
  402dec:	c3                   	retq   
